
MyOS.dli:     file format elf32-i386


Disassembly of section .text:

00101080 <_start>:
  101080:	55                   	push   %ebp
  101081:	89 e5                	mov    %esp,%ebp
  101083:	57                   	push   %edi
  101084:	56                   	push   %esi
  101085:	53                   	push   %ebx
  101086:	8b 75 08             	mov    0x8(%ebp),%esi
  101089:	8b 7d 0c             	mov    0xc(%ebp),%edi
  10108c:	8b 5d 10             	mov    0x10(%ebp),%ebx
  10108f:	b8 55 4f 12 00       	mov    $0x124f55,%eax
  101094:	2d 80 5a 10 00       	sub    $0x105a80,%eax
  101099:	50                   	push   %eax
  10109a:	6a 00                	push   $0x0
  10109c:	68 80 5a 10 00       	push   $0x105a80
  1010a1:	e8 3e 37 00 00       	call   1047e4 <memset>
  1010a6:	b8 64 4f 12 00       	mov    $0x124f64,%eax
  1010ab:	24 f0                	and    $0xf0,%al
  1010ad:	50                   	push   %eax
  1010ae:	e8 f5 26 00 00       	call   1037a8 <brk>
  1010b3:	89 2d 98 5a 10 00    	mov    %ebp,0x105a98
  1010b9:	89 1d a8 5a 10 00    	mov    %ebx,0x105aa8
  1010bf:	89 35 a0 5a 10 00    	mov    %esi,0x105aa0
  1010c5:	89 3d 9c 5a 10 00    	mov    %edi,0x105a9c
  1010cb:	c7 05 a4 5a 10 00 ff 	movl   $0xffffffff,0x105aa4
  1010d2:	ff ff ff 
  1010d5:	e8 1e 30 00 00       	call   1040f8 <init_cons>
  1010da:	6a 0c                	push   $0xc
  1010dc:	68 f2 03 00 00       	push   $0x3f2
  1010e1:	e8 6a 35 00 00       	call   104650 <outportb>
  1010e6:	e8 b9 41 00 00       	call   1052a4 <init_gdb_serial>
  1010eb:	83 c4 18             	add    $0x18,%esp
  1010ee:	85 ff                	test   %edi,%edi
  1010f0:	74 3c                	je     10112e <_start+0xae>
  1010f2:	6a 2d                	push   $0x2d
  1010f4:	57                   	push   %edi
  1010f5:	e8 7e 41 00 00       	call   105278 <strchr>
  1010fa:	83 c4 08             	add    $0x8,%esp
  1010fd:	85 c0                	test   %eax,%eax
  1010ff:	74 2d                	je     10112e <_start+0xae>
  101101:	80 78 01 67          	cmpb   $0x67,0x1(%eax)
  101105:	75 27                	jne    10112e <_start+0xae>
  101107:	80 78 02 00          	cmpb   $0x0,0x2(%eax)
  10110b:	74 0d                	je     10111a <_start+0x9a>
  10110d:	0f be 40 02          	movsbl 0x2(%eax),%eax
  101111:	f6 80 e4 56 10 00 08 	testb  $0x8,0x1056e4(%eax)
  101118:	74 14                	je     10112e <_start+0xae>
  10111a:	e8 ad 24 00 00       	call   1035cc <set_debug_traps>
  10111f:	c7 05 a4 5a 10 00 01 	movl   $0x1,0x105aa4
  101126:	00 00 00 
  101129:	e8 46 26 00 00       	call   103774 <breakpoint>
  10112e:	e8 dd 35 00 00       	call   104710 <_init_machine>
  101133:	e8 0c 00 00 00       	call   101144 <_run_ctors>
  101138:	e8 f7 0a 00 00       	call   101c34 <main>
  10113d:	6a 00                	push   $0x0
  10113f:	e8 2c 31 00 00       	call   104270 <exit>

00101144 <_run_ctors>:
  101144:	53                   	push   %ebx
  101145:	8d 1d 78 5a 10 00    	lea    0x105a78,%ebx
  10114b:	8b 03                	mov    (%ebx),%eax
  10114d:	09 c0                	or     %eax,%eax
  10114f:	74 07                	je     101158 <_run_ctors+0x14>
  101151:	ff d0                	call   *%eax
  101153:	83 c3 04             	add    $0x4,%ebx
  101156:	eb f3                	jmp    10114b <_run_ctors+0x7>
  101158:	5b                   	pop    %ebx
  101159:	c3                   	ret    
  10115a:	8d 36                	lea    (%esi),%esi

0010115c <_run_dtors>:
  10115c:	53                   	push   %ebx
  10115d:	8d 1d 7c 5a 10 00    	lea    0x105a7c,%ebx
  101163:	8b 03                	mov    (%ebx),%eax
  101165:	09 c0                	or     %eax,%eax
  101167:	74 07                	je     101170 <_run_dtors+0x14>
  101169:	ff d0                	call   *%eax
  10116b:	83 c3 04             	add    $0x4,%ebx
  10116e:	eb f3                	jmp    101163 <_run_dtors+0x7>
  101170:	5b                   	pop    %ebx
  101171:	c3                   	ret    
  101172:	90                   	nop
  101173:	90                   	nop

00101174 <Loader>:
  101174:	8b 5c 24 04          	mov    0x4(%esp),%ebx
  101178:	89 dc                	mov    %ebx,%esp
  10117a:	61                   	popa   
  10117b:	83 c4 04             	add    $0x4,%esp
  10117e:	cf                   	iret   
  10117f:	90                   	nop

00101180 <TimerEntry>:
  101180:	6a 20                	push   $0x20
  101182:	eb 1c                	jmp    1011a0 <PreKernel>

00101184 <GetPidEntry>:
  101184:	6a 30                	push   $0x30
  101186:	eb 18                	jmp    1011a0 <PreKernel>

00101188 <ShowCharEntry>:
  101188:	6a 31                	push   $0x31
  10118a:	eb 14                	jmp    1011a0 <PreKernel>

0010118c <SleepEntry>:
  10118c:	6a 32                	push   $0x32
  10118e:	eb 10                	jmp    1011a0 <PreKernel>

00101190 <MuxCreateEntry>:
  101190:	6a 33                	push   $0x33
  101192:	eb 0c                	jmp    1011a0 <PreKernel>

00101194 <MuxOpEntry>:
  101194:	6a 34                	push   $0x34
  101196:	eb 08                	jmp    1011a0 <PreKernel>

00101198 <Term0Entry>:
  101198:	6a 23                	push   $0x23
  10119a:	eb 04                	jmp    1011a0 <PreKernel>

0010119c <Term1Entry>:
  10119c:	6a 24                	push   $0x24
  10119e:	eb 00                	jmp    1011a0 <PreKernel>

001011a0 <PreKernel>:
  1011a0:	60                   	pusha  
  1011a1:	89 e3                	mov    %esp,%ebx
  1011a3:	66 b8 10 00          	mov    $0x10,%ax
  1011a7:	66 8e d8             	mov    %ax,%ds
  1011aa:	66 8e c0             	mov    %ax,%es
  1011ad:	8d 25 ac da 10 00    	lea    0x10daac,%esp
  1011b3:	53                   	push   %ebx
  1011b4:	fc                   	cld    
  1011b5:	e8 ca 0a 00 00       	call   101c84 <Kernel>
  1011ba:	90                   	nop
  1011bb:	90                   	nop

001011bc <Bzero>:
  1011bc:	55                   	push   %ebp
  1011bd:	89 e5                	mov    %esp,%ebp
  1011bf:	90                   	nop
  1011c0:	ff 4d 0c             	decl   0xc(%ebp)
  1011c3:	83 7d 0c ff          	cmpl   $0xffffffff,0xc(%ebp)
  1011c7:	75 03                	jne    1011cc <Bzero+0x10>
  1011c9:	eb 0d                	jmp    1011d8 <Bzero+0x1c>
  1011cb:	90                   	nop
  1011cc:	8b 45 08             	mov    0x8(%ebp),%eax
  1011cf:	c6 00 00             	movb   $0x0,(%eax)
  1011d2:	ff 45 08             	incl   0x8(%ebp)
  1011d5:	eb e9                	jmp    1011c0 <Bzero+0x4>
  1011d7:	90                   	nop
  1011d8:	c9                   	leave  
  1011d9:	c3                   	ret    
  1011da:	8d 36                	lea    (%esi),%esi

001011dc <QisEmpty>:
  1011dc:	55                   	push   %ebp
  1011dd:	89 e5                	mov    %esp,%ebp
  1011df:	8b 45 08             	mov    0x8(%ebp),%eax
  1011e2:	83 38 00             	cmpl   $0x0,(%eax)
  1011e5:	0f 94 c0             	sete   %al
  1011e8:	0f b6 d0             	movzbl %al,%edx
  1011eb:	89 d0                	mov    %edx,%eax
  1011ed:	eb 01                	jmp    1011f0 <QisEmpty+0x14>
  1011ef:	90                   	nop
  1011f0:	c9                   	leave  
  1011f1:	c3                   	ret    
  1011f2:	8d 36                	lea    (%esi),%esi

001011f4 <QisFull>:
  1011f4:	55                   	push   %ebp
  1011f5:	89 e5                	mov    %esp,%ebp
  1011f7:	8b 45 08             	mov    0x8(%ebp),%eax
  1011fa:	83 38 14             	cmpl   $0x14,(%eax)
  1011fd:	0f 94 c0             	sete   %al
  101200:	0f b6 d0             	movzbl %al,%edx
  101203:	89 d0                	mov    %edx,%eax
  101205:	eb 01                	jmp    101208 <QisFull+0x14>
  101207:	90                   	nop
  101208:	c9                   	leave  
  101209:	c3                   	ret    
  10120a:	8d 36                	lea    (%esi),%esi

0010120c <DeQ>:
  10120c:	55                   	push   %ebp
  10120d:	89 e5                	mov    %esp,%ebp
  10120f:	83 ec 08             	sub    $0x8,%esp
  101212:	56                   	push   %esi
  101213:	53                   	push   %ebx
  101214:	8b 45 08             	mov    0x8(%ebp),%eax
  101217:	50                   	push   %eax
  101218:	e8 bf ff ff ff       	call   1011dc <QisEmpty>
  10121d:	83 c4 04             	add    $0x4,%esp
  101220:	89 c0                	mov    %eax,%eax
  101222:	85 c0                	test   %eax,%eax
  101224:	74 1a                	je     101240 <DeQ+0x34>
  101226:	68 00 55 10 00       	push   $0x105500
  10122b:	e8 dc 2f 00 00       	call   10420c <cons_printf>
  101230:	83 c4 04             	add    $0x4,%esp
  101233:	b8 ff ff ff ff       	mov    $0xffffffff,%eax
  101238:	e9 83 00 00 00       	jmp    1012c0 <DeQ+0xb4>
  10123d:	8d 76 00             	lea    0x0(%esi),%esi
  101240:	8b 45 08             	mov    0x8(%ebp),%eax
  101243:	8b 50 04             	mov    0x4(%eax),%edx
  101246:	89 55 fc             	mov    %edx,-0x4(%ebp)
  101249:	8b 45 08             	mov    0x8(%ebp),%eax
  10124c:	ff 08                	decl   (%eax)
  10124e:	c7 45 f8 00 00 00 00 	movl   $0x0,-0x8(%ebp)
  101255:	8b 45 08             	mov    0x8(%ebp),%eax
  101258:	8b 55 f8             	mov    -0x8(%ebp),%edx
  10125b:	39 10                	cmp    %edx,(%eax)
  10125d:	7e 09                	jle    101268 <DeQ+0x5c>
  10125f:	83 7d f8 12          	cmpl   $0x12,-0x8(%ebp)
  101263:	7e 07                	jle    10126c <DeQ+0x60>
  101265:	eb 01                	jmp    101268 <DeQ+0x5c>
  101267:	90                   	nop
  101268:	eb 2a                	jmp    101294 <DeQ+0x88>
  10126a:	8d 36                	lea    (%esi),%esi
  10126c:	8b 45 08             	mov    0x8(%ebp),%eax
  10126f:	8b 55 f8             	mov    -0x8(%ebp),%edx
  101272:	8b 4d 08             	mov    0x8(%ebp),%ecx
  101275:	8b 5d f8             	mov    -0x8(%ebp),%ebx
  101278:	89 de                	mov    %ebx,%esi
  10127a:	8d 1c b5 00 00 00 00 	lea    0x0(,%esi,4),%ebx
  101281:	01 d9                	add    %ebx,%ecx
  101283:	8d 59 08             	lea    0x8(%ecx),%ebx
  101286:	8b 0b                	mov    (%ebx),%ecx
  101288:	89 4c 90 04          	mov    %ecx,0x4(%eax,%edx,4)
  10128c:	ff 45 f8             	incl   -0x8(%ebp)
  10128f:	eb c4                	jmp    101255 <DeQ+0x49>
  101291:	8d 76 00             	lea    0x0(%esi),%esi
  101294:	8b 45 08             	mov    0x8(%ebp),%eax
  101297:	8b 10                	mov    (%eax),%edx
  101299:	89 55 f8             	mov    %edx,-0x8(%ebp)
  10129c:	83 7d f8 13          	cmpl   $0x13,-0x8(%ebp)
  1012a0:	7e 02                	jle    1012a4 <DeQ+0x98>
  1012a2:	eb 14                	jmp    1012b8 <DeQ+0xac>
  1012a4:	8b 45 08             	mov    0x8(%ebp),%eax
  1012a7:	8b 55 f8             	mov    -0x8(%ebp),%edx
  1012aa:	c7 44 90 04 ff ff ff 	movl   $0xffffffff,0x4(%eax,%edx,4)
  1012b1:	ff 
  1012b2:	ff 45 f8             	incl   -0x8(%ebp)
  1012b5:	eb e5                	jmp    10129c <DeQ+0x90>
  1012b7:	90                   	nop
  1012b8:	8b 45 fc             	mov    -0x4(%ebp),%eax
  1012bb:	eb 03                	jmp    1012c0 <DeQ+0xb4>
  1012bd:	8d 76 00             	lea    0x0(%esi),%esi
  1012c0:	8d 65 f0             	lea    -0x10(%ebp),%esp
  1012c3:	5b                   	pop    %ebx
  1012c4:	5e                   	pop    %esi
  1012c5:	c9                   	leave  
  1012c6:	c3                   	ret    
  1012c7:	90                   	nop

001012c8 <EnQ>:
  1012c8:	55                   	push   %ebp
  1012c9:	89 e5                	mov    %esp,%ebp
  1012cb:	8b 45 0c             	mov    0xc(%ebp),%eax
  1012ce:	50                   	push   %eax
  1012cf:	e8 20 ff ff ff       	call   1011f4 <QisFull>
  1012d4:	83 c4 04             	add    $0x4,%esp
  1012d7:	89 c0                	mov    %eax,%eax
  1012d9:	85 c0                	test   %eax,%eax
  1012db:	74 0f                	je     1012ec <EnQ+0x24>
  1012dd:	68 24 55 10 00       	push   $0x105524
  1012e2:	e8 25 2f 00 00       	call   10420c <cons_printf>
  1012e7:	83 c4 04             	add    $0x4,%esp
  1012ea:	eb 14                	jmp    101300 <EnQ+0x38>
  1012ec:	8b 45 0c             	mov    0xc(%ebp),%eax
  1012ef:	8b 55 0c             	mov    0xc(%ebp),%edx
  1012f2:	8b 0a                	mov    (%edx),%ecx
  1012f4:	8b 55 08             	mov    0x8(%ebp),%edx
  1012f7:	89 54 88 04          	mov    %edx,0x4(%eax,%ecx,4)
  1012fb:	8b 45 0c             	mov    0xc(%ebp),%eax
  1012fe:	ff 00                	incl   (%eax)
  101300:	c9                   	leave  
  101301:	c3                   	ret    
  101302:	90                   	nop
  101303:	90                   	nop

00101304 <NewProcSR>:
  101304:	55                   	push   %ebp
  101305:	89 e5                	mov    %esp,%ebp
  101307:	83 ec 08             	sub    $0x8,%esp
  10130a:	56                   	push   %esi
  10130b:	53                   	push   %ebx
  10130c:	a1 0c db 10 00       	mov    0x10db0c,%eax
  101311:	89 45 f8             	mov    %eax,-0x8(%ebp)
  101314:	68 64 1b 12 00       	push   $0x121b64
  101319:	e8 be fe ff ff       	call   1011dc <QisEmpty>
  10131e:	83 c4 04             	add    $0x4,%esp
  101321:	89 c0                	mov    %eax,%eax
  101323:	85 c0                	test   %eax,%eax
  101325:	74 21                	je     101348 <NewProcSR+0x44>
  101327:	68 47 55 10 00       	push   $0x105547
  10132c:	e8 db 2e 00 00       	call   10420c <cons_printf>
  101331:	83 c4 04             	add    $0x4,%esp
  101334:	e8 3b 24 00 00       	call   103774 <breakpoint>
  101339:	8b 45 f8             	mov    -0x8(%ebp),%eax
  10133c:	a3 0c db 10 00       	mov    %eax,0x10db0c
  101341:	e9 1a 01 00 00       	jmp    101460 <NewProcSR+0x15c>
  101346:	8d 36                	lea    (%esi),%esi
  101348:	68 64 1b 12 00       	push   $0x121b64
  10134d:	e8 ba fe ff ff       	call   10120c <DeQ>
  101352:	83 c4 04             	add    $0x4,%esp
  101355:	89 c0                	mov    %eax,%eax
  101357:	89 45 fc             	mov    %eax,-0x4(%ebp)
  10135a:	6a 14                	push   $0x14
  10135c:	8b 55 fc             	mov    -0x4(%ebp),%edx
  10135f:	89 d0                	mov    %edx,%eax
  101361:	c1 e0 02             	shl    $0x2,%eax
  101364:	01 d0                	add    %edx,%eax
  101366:	8d 14 85 00 00 00 00 	lea    0x0(,%eax,4),%edx
  10136d:	8d 82 0c 1c 12 00    	lea    0x121c0c(%edx),%eax
  101373:	50                   	push   %eax
  101374:	e8 43 fe ff ff       	call   1011bc <Bzero>
  101379:	83 c4 08             	add    $0x8,%esp
  10137c:	68 00 10 00 00       	push   $0x1000
  101381:	8b 45 fc             	mov    -0x4(%ebp),%eax
  101384:	89 c2                	mov    %eax,%edx
  101386:	89 d0                	mov    %edx,%eax
  101388:	c1 e0 0c             	shl    $0xc,%eax
  10138b:	8d 90 10 db 10 00    	lea    0x10db10(%eax),%edx
  101391:	52                   	push   %edx
  101392:	e8 25 fe ff ff       	call   1011bc <Bzero>
  101397:	83 c4 08             	add    $0x8,%esp
  10139a:	8b 55 fc             	mov    -0x4(%ebp),%edx
  10139d:	89 d0                	mov    %edx,%eax
  10139f:	c1 e0 02             	shl    $0x2,%eax
  1013a2:	01 d0                	add    %edx,%eax
  1013a4:	8d 14 85 00 00 00 00 	lea    0x0(,%eax,4),%edx
  1013ab:	b8 0c 1c 12 00       	mov    $0x121c0c,%eax
  1013b0:	c7 04 02 01 00 00 00 	movl   $0x1,(%edx,%eax,1)
  1013b7:	83 7d fc 00          	cmpl   $0x0,-0x4(%ebp)
  1013bb:	7e 11                	jle    1013ce <NewProcSR+0xca>
  1013bd:	68 10 1b 12 00       	push   $0x121b10
  1013c2:	8b 45 fc             	mov    -0x4(%ebp),%eax
  1013c5:	50                   	push   %eax
  1013c6:	e8 fd fe ff ff       	call   1012c8 <EnQ>
  1013cb:	83 c4 08             	add    $0x8,%esp
  1013ce:	8b 45 fc             	mov    -0x4(%ebp),%eax
  1013d1:	89 c2                	mov    %eax,%edx
  1013d3:	c1 e2 02             	shl    $0x2,%edx
  1013d6:	01 c2                	add    %eax,%edx
  1013d8:	8d 04 95 00 00 00 00 	lea    0x0(,%edx,4),%eax
  1013df:	ba 0c 1c 12 00       	mov    $0x121c0c,%edx
  1013e4:	8b 4d fc             	mov    -0x4(%ebp),%ecx
  1013e7:	89 cb                	mov    %ecx,%ebx
  1013e9:	89 d9                	mov    %ebx,%ecx
  1013eb:	c1 e1 0c             	shl    $0xc,%ecx
  1013ee:	8d b1 e0 ea 10 00    	lea    0x10eae0(%ecx),%esi
  1013f4:	89 74 10 10          	mov    %esi,0x10(%eax,%edx,1)
  1013f8:	8b 55 fc             	mov    -0x4(%ebp),%edx
  1013fb:	89 d0                	mov    %edx,%eax
  1013fd:	c1 e0 02             	shl    $0x2,%eax
  101400:	01 d0                	add    %edx,%eax
  101402:	8d 14 85 00 00 00 00 	lea    0x0(,%eax,4),%edx
  101409:	b8 0c 1c 12 00       	mov    $0x121c0c,%eax
  10140e:	8b 54 02 10          	mov    0x10(%edx,%eax,1),%edx
  101412:	c7 42 2c 02 02 00 00 	movl   $0x202,0x2c(%edx)
  101419:	e8 7a 31 00 00       	call   104598 <get_cs>
  10141e:	89 c0                	mov    %eax,%eax
  101420:	8b 4d fc             	mov    -0x4(%ebp),%ecx
  101423:	89 ca                	mov    %ecx,%edx
  101425:	c1 e2 02             	shl    $0x2,%edx
  101428:	01 ca                	add    %ecx,%edx
  10142a:	8d 0c 95 00 00 00 00 	lea    0x0(,%edx,4),%ecx
  101431:	ba 0c 1c 12 00       	mov    $0x121c0c,%edx
  101436:	8b 4c 11 10          	mov    0x10(%ecx,%edx,1),%ecx
  10143a:	0f b7 f0             	movzwl %ax,%esi
  10143d:	89 71 28             	mov    %esi,0x28(%ecx)
  101440:	8b 55 fc             	mov    -0x4(%ebp),%edx
  101443:	89 d0                	mov    %edx,%eax
  101445:	c1 e0 02             	shl    $0x2,%eax
  101448:	01 d0                	add    %edx,%eax
  10144a:	8d 14 85 00 00 00 00 	lea    0x0(,%eax,4),%edx
  101451:	b8 0c 1c 12 00       	mov    $0x121c0c,%eax
  101456:	8b 54 02 10          	mov    0x10(%edx,%eax,1),%edx
  10145a:	8b 45 08             	mov    0x8(%ebp),%eax
  10145d:	89 42 24             	mov    %eax,0x24(%edx)
  101460:	8d 65 f0             	lea    -0x10(%ebp),%esp
  101463:	5b                   	pop    %ebx
  101464:	5e                   	pop    %esi
  101465:	c9                   	leave  
  101466:	c3                   	ret    
  101467:	90                   	nop

00101468 <CheckWakeProc>:
  101468:	55                   	push   %ebp
  101469:	89 e5                	mov    %esp,%ebp
  10146b:	83 ec 08             	sub    $0x8,%esp
  10146e:	90                   	nop
  10146f:	c7 45 fc 00 00 00 00 	movl   $0x0,-0x4(%ebp)
  101476:	8b 45 fc             	mov    -0x4(%ebp),%eax
  101479:	39 05 b8 1b 12 00    	cmp    %eax,0x121bb8
  10147f:	7f 07                	jg     101488 <CheckWakeProc+0x20>
  101481:	e9 82 00 00 00       	jmp    101508 <CheckWakeProc+0xa0>
  101486:	8d 36                	lea    (%esi),%esi
  101488:	68 b8 1b 12 00       	push   $0x121bb8
  10148d:	e8 7a fd ff ff       	call   10120c <DeQ>
  101492:	83 c4 04             	add    $0x4,%esp
  101495:	89 c0                	mov    %eax,%eax
  101497:	89 45 f8             	mov    %eax,-0x8(%ebp)
  10149a:	8b 55 f8             	mov    -0x8(%ebp),%edx
  10149d:	89 d0                	mov    %edx,%eax
  10149f:	c1 e0 02             	shl    $0x2,%eax
  1014a2:	01 d0                	add    %edx,%eax
  1014a4:	8d 14 85 00 00 00 00 	lea    0x0(,%eax,4),%edx
  1014ab:	b8 0c 1c 12 00       	mov    $0x121c0c,%eax
  1014b0:	8b 54 02 0c          	mov    0xc(%edx,%eax,1),%edx
  1014b4:	39 15 b0 da 10 00    	cmp    %edx,0x10dab0
  1014ba:	75 30                	jne    1014ec <CheckWakeProc+0x84>
  1014bc:	68 10 1b 12 00       	push   $0x121b10
  1014c1:	8b 45 f8             	mov    -0x8(%ebp),%eax
  1014c4:	50                   	push   %eax
  1014c5:	e8 fe fd ff ff       	call   1012c8 <EnQ>
  1014ca:	83 c4 08             	add    $0x8,%esp
  1014cd:	8b 55 f8             	mov    -0x8(%ebp),%edx
  1014d0:	89 d0                	mov    %edx,%eax
  1014d2:	c1 e0 02             	shl    $0x2,%eax
  1014d5:	01 d0                	add    %edx,%eax
  1014d7:	8d 14 85 00 00 00 00 	lea    0x0(,%eax,4),%edx
  1014de:	b8 0c 1c 12 00       	mov    $0x121c0c,%eax
  1014e3:	c7 04 02 01 00 00 00 	movl   $0x1,(%edx,%eax,1)
  1014ea:	eb 11                	jmp    1014fd <CheckWakeProc+0x95>
  1014ec:	68 b8 1b 12 00       	push   $0x121bb8
  1014f1:	8b 45 f8             	mov    -0x8(%ebp),%eax
  1014f4:	50                   	push   %eax
  1014f5:	e8 ce fd ff ff       	call   1012c8 <EnQ>
  1014fa:	83 c4 08             	add    $0x8,%esp
  1014fd:	ff 45 fc             	incl   -0x4(%ebp)
  101500:	e9 71 ff ff ff       	jmp    101476 <CheckWakeProc+0xe>
  101505:	8d 76 00             	lea    0x0(%esi),%esi
  101508:	c9                   	leave  
  101509:	c3                   	ret    
  10150a:	8d 36                	lea    (%esi),%esi

0010150c <TimerSR>:
  10150c:	55                   	push   %ebp
  10150d:	89 e5                	mov    %esp,%ebp
  10150f:	6a 60                	push   $0x60
  101511:	6a 20                	push   $0x20
  101513:	e8 38 31 00 00       	call   104650 <outportb>
  101518:	83 c4 08             	add    $0x8,%esp
  10151b:	ff 05 b0 da 10 00    	incl   0x10dab0
  101521:	e8 42 ff ff ff       	call   101468 <CheckWakeProc>
  101526:	83 3d 0c db 10 00 00 	cmpl   $0x0,0x10db0c
  10152d:	75 05                	jne    101534 <TimerSR+0x28>
  10152f:	e9 9a 00 00 00       	jmp    1015ce <TimerSR+0xc2>
  101534:	8b 15 0c db 10 00    	mov    0x10db0c,%edx
  10153a:	89 d0                	mov    %edx,%eax
  10153c:	c1 e0 02             	shl    $0x2,%eax
  10153f:	01 d0                	add    %edx,%eax
  101541:	8d 14 85 00 00 00 00 	lea    0x0(,%eax,4),%edx
  101548:	b8 0c 1c 12 00       	mov    $0x121c0c,%eax
  10154d:	ff 44 02 04          	incl   0x4(%edx,%eax,1)
  101551:	8b 15 0c db 10 00    	mov    0x10db0c,%edx
  101557:	89 d0                	mov    %edx,%eax
  101559:	c1 e0 02             	shl    $0x2,%eax
  10155c:	01 d0                	add    %edx,%eax
  10155e:	8d 14 85 00 00 00 00 	lea    0x0(,%eax,4),%edx
  101565:	b8 0c 1c 12 00       	mov    $0x121c0c,%eax
  10156a:	ff 44 02 08          	incl   0x8(%edx,%eax,1)
  10156e:	8b 15 0c db 10 00    	mov    0x10db0c,%edx
  101574:	89 d0                	mov    %edx,%eax
  101576:	c1 e0 02             	shl    $0x2,%eax
  101579:	01 d0                	add    %edx,%eax
  10157b:	8d 14 85 00 00 00 00 	lea    0x0(,%eax,4),%edx
  101582:	b8 0c 1c 12 00       	mov    $0x121c0c,%eax
  101587:	81 7c 02 04 36 01 00 	cmpl   $0x136,0x4(%edx,%eax,1)
  10158e:	00 
  10158f:	75 3d                	jne    1015ce <TimerSR+0xc2>
  101591:	68 10 1b 12 00       	push   $0x121b10
  101596:	a1 0c db 10 00       	mov    0x10db0c,%eax
  10159b:	50                   	push   %eax
  10159c:	e8 27 fd ff ff       	call   1012c8 <EnQ>
  1015a1:	83 c4 08             	add    $0x8,%esp
  1015a4:	8b 15 0c db 10 00    	mov    0x10db0c,%edx
  1015aa:	89 d0                	mov    %edx,%eax
  1015ac:	c1 e0 02             	shl    $0x2,%eax
  1015af:	01 d0                	add    %edx,%eax
  1015b1:	8d 14 85 00 00 00 00 	lea    0x0(,%eax,4),%edx
  1015b8:	b8 0c 1c 12 00       	mov    $0x121c0c,%eax
  1015bd:	c7 04 02 01 00 00 00 	movl   $0x1,(%edx,%eax,1)
  1015c4:	c7 05 0c db 10 00 ff 	movl   $0xffffffff,0x10db0c
  1015cb:	ff ff ff 
  1015ce:	c9                   	leave  
  1015cf:	c3                   	ret    

001015d0 <GetPidSR>:
  1015d0:	55                   	push   %ebp
  1015d1:	89 e5                	mov    %esp,%ebp
  1015d3:	a1 0c db 10 00       	mov    0x10db0c,%eax
  1015d8:	eb 02                	jmp    1015dc <GetPidSR+0xc>
  1015da:	8d 36                	lea    (%esi),%esi
  1015dc:	c9                   	leave  
  1015dd:	c3                   	ret    
  1015de:	8d 36                	lea    (%esi),%esi

001015e0 <SleepSR>:
  1015e0:	55                   	push   %ebp
  1015e1:	89 e5                	mov    %esp,%ebp
  1015e3:	8b 15 0c db 10 00    	mov    0x10db0c,%edx
  1015e9:	89 d0                	mov    %edx,%eax
  1015eb:	c1 e0 02             	shl    $0x2,%eax
  1015ee:	01 d0                	add    %edx,%eax
  1015f0:	8d 14 85 00 00 00 00 	lea    0x0(,%eax,4),%edx
  1015f7:	b8 0c 1c 12 00       	mov    $0x121c0c,%eax
  1015fc:	8b 0d b0 da 10 00    	mov    0x10dab0,%ecx
  101602:	03 4d 08             	add    0x8(%ebp),%ecx
  101605:	89 4c 02 0c          	mov    %ecx,0xc(%edx,%eax,1)
  101609:	8b 15 0c db 10 00    	mov    0x10db0c,%edx
  10160f:	89 d0                	mov    %edx,%eax
  101611:	c1 e0 02             	shl    $0x2,%eax
  101614:	01 d0                	add    %edx,%eax
  101616:	8d 14 85 00 00 00 00 	lea    0x0(,%eax,4),%edx
  10161d:	b8 0c 1c 12 00       	mov    $0x121c0c,%eax
  101622:	c7 04 02 03 00 00 00 	movl   $0x3,(%edx,%eax,1)
  101629:	68 b8 1b 12 00       	push   $0x121bb8
  10162e:	a1 0c db 10 00       	mov    0x10db0c,%eax
  101633:	50                   	push   %eax
  101634:	e8 8f fc ff ff       	call   1012c8 <EnQ>
  101639:	83 c4 08             	add    $0x8,%esp
  10163c:	c7 05 0c db 10 00 ff 	movl   $0xffffffff,0x10db0c
  101643:	ff ff ff 
  101646:	c9                   	leave  
  101647:	c3                   	ret    

00101648 <ShowCharSR>:
  101648:	55                   	push   %ebp
  101649:	89 e5                	mov    %esp,%ebp
  10164b:	83 ec 08             	sub    $0x8,%esp
  10164e:	56                   	push   %esi
  10164f:	53                   	push   %ebx
  101650:	8b 45 10             	mov    0x10(%ebp),%eax
  101653:	88 45 ff             	mov    %al,-0x1(%ebp)
  101656:	c7 45 f8 00 80 0b 00 	movl   $0xb8000,-0x8(%ebp)
  10165d:	8b 4d 08             	mov    0x8(%ebp),%ecx
  101660:	89 ca                	mov    %ecx,%edx
  101662:	c1 e2 02             	shl    $0x2,%edx
  101665:	01 ca                	add    %ecx,%edx
  101667:	89 d1                	mov    %edx,%ecx
  101669:	c1 e1 04             	shl    $0x4,%ecx
  10166c:	89 cb                	mov    %ecx,%ebx
  10166e:	03 5d 0c             	add    0xc(%ebp),%ebx
  101671:	89 da                	mov    %ebx,%edx
  101673:	8d 0c 13             	lea    (%ebx,%edx,1),%ecx
  101676:	01 4d f8             	add    %ecx,-0x8(%ebp)
  101679:	8b 55 f8             	mov    -0x8(%ebp),%edx
  10167c:	66 0f be 4d ff       	movsbw -0x1(%ebp),%cx
  101681:	89 ce                	mov    %ecx,%esi
  101683:	66 81 c6 00 0f       	add    $0xf00,%si
  101688:	66 89 32             	mov    %si,(%edx)
  10168b:	8d 65 f0             	lea    -0x10(%ebp),%esp
  10168e:	5b                   	pop    %ebx
  10168f:	5e                   	pop    %esi
  101690:	c9                   	leave  
  101691:	c3                   	ret    
  101692:	8d 36                	lea    (%esi),%esi

00101694 <MuxCreateSR>:
  101694:	55                   	push   %ebp
  101695:	89 e5                	mov    %esp,%ebp
  101697:	83 ec 04             	sub    $0x4,%esp
  10169a:	68 b4 da 10 00       	push   $0x10dab4
  10169f:	e8 68 fb ff ff       	call   10120c <DeQ>
  1016a4:	83 c4 04             	add    $0x4,%esp
  1016a7:	89 c0                	mov    %eax,%eax
  1016a9:	89 45 fc             	mov    %eax,-0x4(%ebp)
  1016ac:	8b 55 fc             	mov    -0x4(%ebp),%edx
  1016af:	89 d0                	mov    %edx,%eax
  1016b1:	c1 e0 02             	shl    $0x2,%eax
  1016b4:	01 d0                	add    %edx,%eax
  1016b6:	01 c0                	add    %eax,%eax
  1016b8:	01 d0                	add    %edx,%eax
  1016ba:	01 c0                	add    %eax,%eax
  1016bc:	01 d0                	add    %edx,%eax
  1016be:	8d 14 85 00 00 00 00 	lea    0x0(,%eax,4),%edx
  1016c5:	b8 9c 1d 12 00       	mov    $0x121d9c,%eax
  1016ca:	8b 4d 08             	mov    0x8(%ebp),%ecx
  1016cd:	89 0c 02             	mov    %ecx,(%edx,%eax,1)
  1016d0:	8b 55 fc             	mov    -0x4(%ebp),%edx
  1016d3:	89 d0                	mov    %edx,%eax
  1016d5:	c1 e0 02             	shl    $0x2,%eax
  1016d8:	01 d0                	add    %edx,%eax
  1016da:	01 c0                	add    %eax,%eax
  1016dc:	01 d0                	add    %edx,%eax
  1016de:	01 c0                	add    %eax,%eax
  1016e0:	01 d0                	add    %edx,%eax
  1016e2:	8d 14 85 00 00 00 00 	lea    0x0(,%eax,4),%edx
  1016e9:	b8 9c 1d 12 00       	mov    $0x121d9c,%eax
  1016ee:	8b 0d 0c db 10 00    	mov    0x10db0c,%ecx
  1016f4:	89 4c 02 04          	mov    %ecx,0x4(%edx,%eax,1)
  1016f8:	6a 54                	push   $0x54
  1016fa:	8b 55 fc             	mov    -0x4(%ebp),%edx
  1016fd:	89 d0                	mov    %edx,%eax
  1016ff:	c1 e0 02             	shl    $0x2,%eax
  101702:	01 d0                	add    %edx,%eax
  101704:	01 c0                	add    %eax,%eax
  101706:	01 d0                	add    %edx,%eax
  101708:	01 c0                	add    %eax,%eax
  10170a:	01 d0                	add    %edx,%eax
  10170c:	8d 14 85 00 00 00 00 	lea    0x0(,%eax,4),%edx
  101713:	8d 82 a4 1d 12 00    	lea    0x121da4(%edx),%eax
  101719:	50                   	push   %eax
  10171a:	e8 9d fa ff ff       	call   1011bc <Bzero>
  10171f:	83 c4 08             	add    $0x8,%esp
  101722:	8b 45 fc             	mov    -0x4(%ebp),%eax
  101725:	eb 01                	jmp    101728 <MuxCreateSR+0x94>
  101727:	90                   	nop
  101728:	c9                   	leave  
  101729:	c3                   	ret    
  10172a:	8d 36                	lea    (%esi),%esi

0010172c <MuxOpSR>:
  10172c:	55                   	push   %ebp
  10172d:	89 e5                	mov    %esp,%ebp
  10172f:	83 ec 04             	sub    $0x4,%esp
  101732:	83 7d 0c 01          	cmpl   $0x1,0xc(%ebp)
  101736:	0f 85 a8 00 00 00    	jne    1017e4 <MuxOpSR+0xb8>
  10173c:	8b 55 08             	mov    0x8(%ebp),%edx
  10173f:	89 d0                	mov    %edx,%eax
  101741:	c1 e0 02             	shl    $0x2,%eax
  101744:	01 d0                	add    %edx,%eax
  101746:	01 c0                	add    %eax,%eax
  101748:	01 d0                	add    %edx,%eax
  10174a:	01 c0                	add    %eax,%eax
  10174c:	01 d0                	add    %edx,%eax
  10174e:	8d 14 85 00 00 00 00 	lea    0x0(,%eax,4),%edx
  101755:	b8 9c 1d 12 00       	mov    $0x121d9c,%eax
  10175a:	83 3c 02 00          	cmpl   $0x0,(%edx,%eax,1)
  10175e:	7e 24                	jle    101784 <MuxOpSR+0x58>
  101760:	8b 55 08             	mov    0x8(%ebp),%edx
  101763:	89 d0                	mov    %edx,%eax
  101765:	c1 e0 02             	shl    $0x2,%eax
  101768:	01 d0                	add    %edx,%eax
  10176a:	01 c0                	add    %eax,%eax
  10176c:	01 d0                	add    %edx,%eax
  10176e:	01 c0                	add    %eax,%eax
  101770:	01 d0                	add    %edx,%eax
  101772:	8d 14 85 00 00 00 00 	lea    0x0(,%eax,4),%edx
  101779:	b8 9c 1d 12 00       	mov    $0x121d9c,%eax
  10177e:	ff 0c 02             	decl   (%edx,%eax,1)
  101781:	eb 59                	jmp    1017dc <MuxOpSR+0xb0>
  101783:	90                   	nop
  101784:	8b 55 08             	mov    0x8(%ebp),%edx
  101787:	89 d0                	mov    %edx,%eax
  101789:	c1 e0 02             	shl    $0x2,%eax
  10178c:	01 d0                	add    %edx,%eax
  10178e:	01 c0                	add    %eax,%eax
  101790:	01 d0                	add    %edx,%eax
  101792:	01 c0                	add    %eax,%eax
  101794:	01 d0                	add    %edx,%eax
  101796:	8d 14 85 00 00 00 00 	lea    0x0(,%eax,4),%edx
  10179d:	8d 82 a4 1d 12 00    	lea    0x121da4(%edx),%eax
  1017a3:	50                   	push   %eax
  1017a4:	a1 0c db 10 00       	mov    0x10db0c,%eax
  1017a9:	50                   	push   %eax
  1017aa:	e8 19 fb ff ff       	call   1012c8 <EnQ>
  1017af:	83 c4 08             	add    $0x8,%esp
  1017b2:	8b 15 0c db 10 00    	mov    0x10db0c,%edx
  1017b8:	89 d0                	mov    %edx,%eax
  1017ba:	c1 e0 02             	shl    $0x2,%eax
  1017bd:	01 d0                	add    %edx,%eax
  1017bf:	8d 14 85 00 00 00 00 	lea    0x0(,%eax,4),%edx
  1017c6:	b8 0c 1c 12 00       	mov    $0x121c0c,%eax
  1017cb:	c7 04 02 04 00 00 00 	movl   $0x4,(%edx,%eax,1)
  1017d2:	c7 05 0c db 10 00 ff 	movl   $0xffffffff,0x10db0c
  1017d9:	ff ff ff 
  1017dc:	e9 ba 00 00 00       	jmp    10189b <MuxOpSR+0x16f>
  1017e1:	8d 76 00             	lea    0x0(%esi),%esi
  1017e4:	83 7d 0c 02          	cmpl   $0x2,0xc(%ebp)
  1017e8:	0f 85 ad 00 00 00    	jne    10189b <MuxOpSR+0x16f>
  1017ee:	8b 55 08             	mov    0x8(%ebp),%edx
  1017f1:	89 d0                	mov    %edx,%eax
  1017f3:	c1 e0 02             	shl    $0x2,%eax
  1017f6:	01 d0                	add    %edx,%eax
  1017f8:	01 c0                	add    %eax,%eax
  1017fa:	01 d0                	add    %edx,%eax
  1017fc:	01 c0                	add    %eax,%eax
  1017fe:	01 d0                	add    %edx,%eax
  101800:	8d 14 85 00 00 00 00 	lea    0x0(,%eax,4),%edx
  101807:	8d 82 a4 1d 12 00    	lea    0x121da4(%edx),%eax
  10180d:	50                   	push   %eax
  10180e:	e8 c9 f9 ff ff       	call   1011dc <QisEmpty>
  101813:	83 c4 04             	add    $0x4,%esp
  101816:	89 c0                	mov    %eax,%eax
  101818:	85 c0                	test   %eax,%eax
  10181a:	74 24                	je     101840 <MuxOpSR+0x114>
  10181c:	8b 55 08             	mov    0x8(%ebp),%edx
  10181f:	89 d0                	mov    %edx,%eax
  101821:	c1 e0 02             	shl    $0x2,%eax
  101824:	01 d0                	add    %edx,%eax
  101826:	01 c0                	add    %eax,%eax
  101828:	01 d0                	add    %edx,%eax
  10182a:	01 c0                	add    %eax,%eax
  10182c:	01 d0                	add    %edx,%eax
  10182e:	8d 14 85 00 00 00 00 	lea    0x0(,%eax,4),%edx
  101835:	b8 9c 1d 12 00       	mov    $0x121d9c,%eax
  10183a:	ff 04 02             	incl   (%edx,%eax,1)
  10183d:	eb 5c                	jmp    10189b <MuxOpSR+0x16f>
  10183f:	90                   	nop
  101840:	8b 55 08             	mov    0x8(%ebp),%edx
  101843:	89 d0                	mov    %edx,%eax
  101845:	c1 e0 02             	shl    $0x2,%eax
  101848:	01 d0                	add    %edx,%eax
  10184a:	01 c0                	add    %eax,%eax
  10184c:	01 d0                	add    %edx,%eax
  10184e:	01 c0                	add    %eax,%eax
  101850:	01 d0                	add    %edx,%eax
  101852:	8d 14 85 00 00 00 00 	lea    0x0(,%eax,4),%edx
  101859:	8d 82 a4 1d 12 00    	lea    0x121da4(%edx),%eax
  10185f:	50                   	push   %eax
  101860:	e8 a7 f9 ff ff       	call   10120c <DeQ>
  101865:	83 c4 04             	add    $0x4,%esp
  101868:	89 c0                	mov    %eax,%eax
  10186a:	89 45 fc             	mov    %eax,-0x4(%ebp)
  10186d:	68 10 1b 12 00       	push   $0x121b10
  101872:	8b 45 fc             	mov    -0x4(%ebp),%eax
  101875:	50                   	push   %eax
  101876:	e8 4d fa ff ff       	call   1012c8 <EnQ>
  10187b:	83 c4 08             	add    $0x8,%esp
  10187e:	8b 55 fc             	mov    -0x4(%ebp),%edx
  101881:	89 d0                	mov    %edx,%eax
  101883:	c1 e0 02             	shl    $0x2,%eax
  101886:	01 d0                	add    %edx,%eax
  101888:	8d 14 85 00 00 00 00 	lea    0x0(,%eax,4),%edx
  10188f:	b8 0c 1c 12 00       	mov    $0x121c0c,%eax
  101894:	c7 04 02 01 00 00 00 	movl   $0x1,(%edx,%eax,1)
  10189b:	c9                   	leave  
  10189c:	c3                   	ret    
  10189d:	8d 76 00             	lea    0x0(%esi),%esi

001018a0 <TermSR>:
  1018a0:	55                   	push   %ebp
  1018a1:	89 e5                	mov    %esp,%ebp
  1018a3:	8b 45 08             	mov    0x8(%ebp),%eax
  1018a6:	50                   	push   %eax
  1018a7:	e8 40 00 00 00       	call   1018ec <TermTxSR>
  1018ac:	83 c4 04             	add    $0x4,%esp
  1018af:	eb 13                	jmp    1018c4 <TermSR+0x24>
  1018b1:	8d 76 00             	lea    0x0(%esi),%esi
  1018b4:	eb 0e                	jmp    1018c4 <TermSR+0x24>
  1018b6:	8d 36                	lea    (%esi),%esi
  1018b8:	8b 45 08             	mov    0x8(%ebp),%eax
  1018bb:	50                   	push   %eax
  1018bc:	e8 e7 00 00 00       	call   1019a8 <TermRxSR>
  1018c1:	83 c4 04             	add    $0x4,%esp
  1018c4:	8b 55 08             	mov    0x8(%ebp),%edx
  1018c7:	89 d0                	mov    %edx,%eax
  1018c9:	01 c0                	add    %eax,%eax
  1018cb:	01 d0                	add    %edx,%eax
  1018cd:	89 c2                	mov    %eax,%edx
  1018cf:	c1 e2 05             	shl    $0x5,%edx
  1018d2:	b8 bc 58 10 00       	mov    $0x1058bc,%eax
  1018d7:	83 3c 02 01          	cmpl   $0x1,(%edx,%eax,1)
  1018db:	75 0c                	jne    1018e9 <TermSR+0x49>
  1018dd:	8b 45 08             	mov    0x8(%ebp),%eax
  1018e0:	50                   	push   %eax
  1018e1:	e8 06 00 00 00       	call   1018ec <TermTxSR>
  1018e6:	83 c4 04             	add    $0x4,%esp
  1018e9:	c9                   	leave  
  1018ea:	c3                   	ret    
  1018eb:	90                   	nop

001018ec <TermTxSR>:
  1018ec:	55                   	push   %ebp
  1018ed:	89 e5                	mov    %esp,%ebp
  1018ef:	83 ec 04             	sub    $0x4,%esp
  1018f2:	8b 55 08             	mov    0x8(%ebp),%edx
  1018f5:	89 d0                	mov    %edx,%eax
  1018f7:	01 c0                	add    %eax,%eax
  1018f9:	01 d0                	add    %edx,%eax
  1018fb:	89 c2                	mov    %eax,%edx
  1018fd:	c1 e2 05             	shl    $0x5,%edx
  101900:	8d 82 c8 58 10 00    	lea    0x1058c8(%edx),%eax
  101906:	50                   	push   %eax
  101907:	e8 d0 f8 ff ff       	call   1011dc <QisEmpty>
  10190c:	83 c4 04             	add    $0x4,%esp
  10190f:	89 c0                	mov    %eax,%eax
  101911:	85 c0                	test   %eax,%eax
  101913:	74 23                	je     101938 <TermTxSR+0x4c>
  101915:	8b 55 08             	mov    0x8(%ebp),%edx
  101918:	89 d0                	mov    %edx,%eax
  10191a:	01 c0                	add    %eax,%eax
  10191c:	01 d0                	add    %edx,%eax
  10191e:	89 c2                	mov    %eax,%edx
  101920:	c1 e2 05             	shl    $0x5,%edx
  101923:	b8 bc 58 10 00       	mov    $0x1058bc,%eax
  101928:	c7 04 02 01 00 00 00 	movl   $0x1,(%edx,%eax,1)
  10192f:	eb 74                	jmp    1019a5 <TermTxSR+0xb9>
  101931:	8d 76 00             	lea    0x0(%esi),%esi
  101934:	eb 6f                	jmp    1019a5 <TermTxSR+0xb9>
  101936:	8d 36                	lea    (%esi),%esi
  101938:	8b 55 08             	mov    0x8(%ebp),%edx
  10193b:	89 d0                	mov    %edx,%eax
  10193d:	01 c0                	add    %eax,%eax
  10193f:	01 d0                	add    %edx,%eax
  101941:	89 c2                	mov    %eax,%edx
  101943:	c1 e2 05             	shl    $0x5,%edx
  101946:	8d 82 c8 58 10 00    	lea    0x1058c8(%edx),%eax
  10194c:	50                   	push   %eax
  10194d:	e8 ba f8 ff ff       	call   10120c <DeQ>
  101952:	83 c4 04             	add    $0x4,%esp
  101955:	89 c0                	mov    %eax,%eax
  101957:	88 45 ff             	mov    %al,-0x1(%ebp)
  10195a:	0f be 45 ff          	movsbl -0x1(%ebp),%eax
  10195e:	50                   	push   %eax
  10195f:	6a 00                	push   $0x0
  101961:	e8 ea 2c 00 00       	call   104650 <outportb>
  101966:	83 c4 08             	add    $0x8,%esp
  101969:	8b 55 08             	mov    0x8(%ebp),%edx
  10196c:	89 d0                	mov    %edx,%eax
  10196e:	01 c0                	add    %eax,%eax
  101970:	01 d0                	add    %edx,%eax
  101972:	89 c2                	mov    %eax,%edx
  101974:	c1 e2 05             	shl    $0x5,%edx
  101977:	b8 bc 58 10 00       	mov    $0x1058bc,%eax
  10197c:	c7 04 02 00 00 00 00 	movl   $0x0,(%edx,%eax,1)
  101983:	6a 02                	push   $0x2
  101985:	8b 55 08             	mov    0x8(%ebp),%edx
  101988:	89 d0                	mov    %edx,%eax
  10198a:	01 c0                	add    %eax,%eax
  10198c:	01 d0                	add    %edx,%eax
  10198e:	89 c2                	mov    %eax,%edx
  101990:	c1 e2 05             	shl    $0x5,%edx
  101993:	b8 bc 58 10 00       	mov    $0x1058bc,%eax
  101998:	8b 54 02 08          	mov    0x8(%edx,%eax,1),%edx
  10199c:	52                   	push   %edx
  10199d:	e8 06 09 00 00       	call   1022a8 <MuxOpCall>
  1019a2:	83 c4 08             	add    $0x8,%esp
  1019a5:	c9                   	leave  
  1019a6:	c3                   	ret    
  1019a7:	90                   	nop

001019a8 <TermRxSR>:
  1019a8:	55                   	push   %ebp
  1019a9:	89 e5                	mov    %esp,%ebp
  1019ab:	eb 03                	jmp    1019b0 <TermRxSR+0x8>
  1019ad:	8d 76 00             	lea    0x0(%esi),%esi
  1019b0:	c9                   	leave  
  1019b1:	c3                   	ret    
  1019b2:	90                   	nop
  1019b3:	90                   	nop

001019b4 <InitKernelData>:
  1019b4:	55                   	push   %ebp
  1019b5:	89 e5                	mov    %esp,%ebp
  1019b7:	83 ec 04             	sub    $0x4,%esp
  1019ba:	e8 89 2a 00 00       	call   104448 <get_idt_base>
  1019bf:	89 c0                	mov    %eax,%eax
  1019c1:	a3 ac da 10 00       	mov    %eax,0x10daac
  1019c6:	c7 05 b0 da 10 00 00 	movl   $0x0,0x10dab0
  1019cd:	00 00 00 
  1019d0:	6a 54                	push   $0x54
  1019d2:	68 64 1b 12 00       	push   $0x121b64
  1019d7:	e8 e0 f7 ff ff       	call   1011bc <Bzero>
  1019dc:	83 c4 08             	add    $0x8,%esp
  1019df:	6a 54                	push   $0x54
  1019e1:	68 10 1b 12 00       	push   $0x121b10
  1019e6:	e8 d1 f7 ff ff       	call   1011bc <Bzero>
  1019eb:	83 c4 08             	add    $0x8,%esp
  1019ee:	6a 54                	push   $0x54
  1019f0:	68 b8 1b 12 00       	push   $0x121bb8
  1019f5:	e8 c2 f7 ff ff       	call   1011bc <Bzero>
  1019fa:	83 c4 08             	add    $0x8,%esp
  1019fd:	6a 54                	push   $0x54
  1019ff:	68 b4 da 10 00       	push   $0x10dab4
  101a04:	e8 b3 f7 ff ff       	call   1011bc <Bzero>
  101a09:	83 c4 08             	add    $0x8,%esp
  101a0c:	c7 45 fc 00 00 00 00 	movl   $0x0,-0x4(%ebp)
  101a13:	83 7d fc 13          	cmpl   $0x13,-0x4(%ebp)
  101a17:	7e 03                	jle    101a1c <InitKernelData+0x68>
  101a19:	eb 29                	jmp    101a44 <InitKernelData+0x90>
  101a1b:	90                   	nop
  101a1c:	68 64 1b 12 00       	push   $0x121b64
  101a21:	8b 45 fc             	mov    -0x4(%ebp),%eax
  101a24:	50                   	push   %eax
  101a25:	e8 9e f8 ff ff       	call   1012c8 <EnQ>
  101a2a:	83 c4 08             	add    $0x8,%esp
  101a2d:	68 b4 da 10 00       	push   $0x10dab4
  101a32:	8b 45 fc             	mov    -0x4(%ebp),%eax
  101a35:	50                   	push   %eax
  101a36:	e8 8d f8 ff ff       	call   1012c8 <EnQ>
  101a3b:	83 c4 08             	add    $0x8,%esp
  101a3e:	ff 45 fc             	incl   -0x4(%ebp)
  101a41:	eb d0                	jmp    101a13 <InitKernelData+0x5f>
  101a43:	90                   	nop
  101a44:	c7 05 0c db 10 00 ff 	movl   $0xffffffff,0x10db0c
  101a4b:	ff ff ff 
  101a4e:	c9                   	leave  
  101a4f:	c3                   	ret    

00101a50 <InitKernelControl>:
  101a50:	55                   	push   %ebp
  101a51:	89 e5                	mov    %esp,%ebp
  101a53:	6a 00                	push   $0x0
  101a55:	6a 0e                	push   $0xe
  101a57:	e8 3c 2b 00 00       	call   104598 <get_cs>
  101a5c:	89 c0                	mov    %eax,%eax
  101a5e:	0f b7 d0             	movzwl %ax,%edx
  101a61:	52                   	push   %edx
  101a62:	68 80 11 10 00       	push   $0x101180
  101a67:	a1 ac da 10 00       	mov    0x10daac,%eax
  101a6c:	05 00 01 00 00       	add    $0x100,%eax
  101a71:	50                   	push   %eax
  101a72:	e8 bd 2a 00 00       	call   104534 <fill_gate>
  101a77:	83 c4 14             	add    $0x14,%esp
  101a7a:	6a 00                	push   $0x0
  101a7c:	6a 0e                	push   $0xe
  101a7e:	e8 15 2b 00 00       	call   104598 <get_cs>
  101a83:	89 c0                	mov    %eax,%eax
  101a85:	0f b7 d0             	movzwl %ax,%edx
  101a88:	52                   	push   %edx
  101a89:	68 84 11 10 00       	push   $0x101184
  101a8e:	a1 ac da 10 00       	mov    0x10daac,%eax
  101a93:	05 80 01 00 00       	add    $0x180,%eax
  101a98:	50                   	push   %eax
  101a99:	e8 96 2a 00 00       	call   104534 <fill_gate>
  101a9e:	83 c4 14             	add    $0x14,%esp
  101aa1:	6a 00                	push   $0x0
  101aa3:	6a 0e                	push   $0xe
  101aa5:	e8 ee 2a 00 00       	call   104598 <get_cs>
  101aaa:	89 c0                	mov    %eax,%eax
  101aac:	0f b7 d0             	movzwl %ax,%edx
  101aaf:	52                   	push   %edx
  101ab0:	68 8c 11 10 00       	push   $0x10118c
  101ab5:	a1 ac da 10 00       	mov    0x10daac,%eax
  101aba:	05 90 01 00 00       	add    $0x190,%eax
  101abf:	50                   	push   %eax
  101ac0:	e8 6f 2a 00 00       	call   104534 <fill_gate>
  101ac5:	83 c4 14             	add    $0x14,%esp
  101ac8:	6a 00                	push   $0x0
  101aca:	6a 0e                	push   $0xe
  101acc:	e8 c7 2a 00 00       	call   104598 <get_cs>
  101ad1:	89 c0                	mov    %eax,%eax
  101ad3:	0f b7 d0             	movzwl %ax,%edx
  101ad6:	52                   	push   %edx
  101ad7:	68 88 11 10 00       	push   $0x101188
  101adc:	a1 ac da 10 00       	mov    0x10daac,%eax
  101ae1:	05 88 01 00 00       	add    $0x188,%eax
  101ae6:	50                   	push   %eax
  101ae7:	e8 48 2a 00 00       	call   104534 <fill_gate>
  101aec:	83 c4 14             	add    $0x14,%esp
  101aef:	6a 00                	push   $0x0
  101af1:	6a 0e                	push   $0xe
  101af3:	e8 a0 2a 00 00       	call   104598 <get_cs>
  101af8:	89 c0                	mov    %eax,%eax
  101afa:	0f b7 d0             	movzwl %ax,%edx
  101afd:	52                   	push   %edx
  101afe:	68 90 11 10 00       	push   $0x101190
  101b03:	a1 ac da 10 00       	mov    0x10daac,%eax
  101b08:	05 98 01 00 00       	add    $0x198,%eax
  101b0d:	50                   	push   %eax
  101b0e:	e8 21 2a 00 00       	call   104534 <fill_gate>
  101b13:	83 c4 14             	add    $0x14,%esp
  101b16:	6a 00                	push   $0x0
  101b18:	6a 0e                	push   $0xe
  101b1a:	e8 79 2a 00 00       	call   104598 <get_cs>
  101b1f:	89 c0                	mov    %eax,%eax
  101b21:	0f b7 d0             	movzwl %ax,%edx
  101b24:	52                   	push   %edx
  101b25:	68 94 11 10 00       	push   $0x101194
  101b2a:	a1 ac da 10 00       	mov    0x10daac,%eax
  101b2f:	05 a0 01 00 00       	add    $0x1a0,%eax
  101b34:	50                   	push   %eax
  101b35:	e8 fa 29 00 00       	call   104534 <fill_gate>
  101b3a:	83 c4 14             	add    $0x14,%esp
  101b3d:	6a 00                	push   $0x0
  101b3f:	6a 0e                	push   $0xe
  101b41:	e8 52 2a 00 00       	call   104598 <get_cs>
  101b46:	89 c0                	mov    %eax,%eax
  101b48:	0f b7 d0             	movzwl %ax,%edx
  101b4b:	52                   	push   %edx
  101b4c:	68 98 11 10 00       	push   $0x101198
  101b51:	a1 ac da 10 00       	mov    0x10daac,%eax
  101b56:	05 18 01 00 00       	add    $0x118,%eax
  101b5b:	50                   	push   %eax
  101b5c:	e8 d3 29 00 00       	call   104534 <fill_gate>
  101b61:	83 c4 14             	add    $0x14,%esp
  101b64:	6a 00                	push   $0x0
  101b66:	6a 0e                	push   $0xe
  101b68:	e8 2b 2a 00 00       	call   104598 <get_cs>
  101b6d:	89 c0                	mov    %eax,%eax
  101b6f:	0f b7 d0             	movzwl %ax,%edx
  101b72:	52                   	push   %edx
  101b73:	68 9c 11 10 00       	push   $0x10119c
  101b78:	a1 ac da 10 00       	mov    0x10daac,%eax
  101b7d:	05 20 01 00 00       	add    $0x120,%eax
  101b82:	50                   	push   %eax
  101b83:	e8 ac 29 00 00       	call   104534 <fill_gate>
  101b88:	83 c4 14             	add    $0x14,%esp
  101b8b:	6a e6                	push   $0xffffffe6
  101b8d:	6a 21                	push   $0x21
  101b8f:	e8 bc 2a 00 00       	call   104650 <outportb>
  101b94:	83 c4 08             	add    $0x8,%esp
  101b97:	c9                   	leave  
  101b98:	c3                   	ret    
  101b99:	8d 76 00             	lea    0x0(%esi),%esi

00101b9c <Scheduler>:
  101b9c:	55                   	push   %ebp
  101b9d:	89 e5                	mov    %esp,%ebp
  101b9f:	83 3d 0c db 10 00 00 	cmpl   $0x0,0x10db0c
  101ba6:	7e 08                	jle    101bb0 <Scheduler+0x14>
  101ba8:	e9 82 00 00 00       	jmp    101c2f <Scheduler+0x93>
  101bad:	8d 76 00             	lea    0x0(%esi),%esi
  101bb0:	68 10 1b 12 00       	push   $0x121b10
  101bb5:	e8 22 f6 ff ff       	call   1011dc <QisEmpty>
  101bba:	83 c4 04             	add    $0x4,%esp
  101bbd:	89 c0                	mov    %eax,%eax
  101bbf:	85 c0                	test   %eax,%eax
  101bc1:	74 0d                	je     101bd0 <Scheduler+0x34>
  101bc3:	c7 05 0c db 10 00 00 	movl   $0x0,0x10db0c
  101bca:	00 00 00 
  101bcd:	eb 1f                	jmp    101bee <Scheduler+0x52>
  101bcf:	90                   	nop
  101bd0:	c7 05 0c 1c 12 00 01 	movl   $0x1,0x121c0c
  101bd7:	00 00 00 
  101bda:	68 10 1b 12 00       	push   $0x121b10
  101bdf:	e8 28 f6 ff ff       	call   10120c <DeQ>
  101be4:	83 c4 04             	add    $0x4,%esp
  101be7:	89 c0                	mov    %eax,%eax
  101be9:	a3 0c db 10 00       	mov    %eax,0x10db0c
  101bee:	8b 15 0c db 10 00    	mov    0x10db0c,%edx
  101bf4:	89 d0                	mov    %edx,%eax
  101bf6:	c1 e0 02             	shl    $0x2,%eax
  101bf9:	01 d0                	add    %edx,%eax
  101bfb:	8d 14 85 00 00 00 00 	lea    0x0(,%eax,4),%edx
  101c02:	b8 0c 1c 12 00       	mov    $0x121c0c,%eax
  101c07:	c7 44 02 04 00 00 00 	movl   $0x0,0x4(%edx,%eax,1)
  101c0e:	00 
  101c0f:	8b 15 0c db 10 00    	mov    0x10db0c,%edx
  101c15:	89 d0                	mov    %edx,%eax
  101c17:	c1 e0 02             	shl    $0x2,%eax
  101c1a:	01 d0                	add    %edx,%eax
  101c1c:	8d 14 85 00 00 00 00 	lea    0x0(,%eax,4),%edx
  101c23:	b8 0c 1c 12 00       	mov    $0x121c0c,%eax
  101c28:	c7 04 02 02 00 00 00 	movl   $0x2,(%edx,%eax,1)
  101c2f:	c9                   	leave  
  101c30:	c3                   	ret    
  101c31:	8d 76 00             	lea    0x0(%esi),%esi

00101c34 <main>:
  101c34:	55                   	push   %ebp
  101c35:	89 e5                	mov    %esp,%ebp
  101c37:	e8 78 fd ff ff       	call   1019b4 <InitKernelData>
  101c3c:	e8 0f fe ff ff       	call   101a50 <InitKernelControl>
  101c41:	68 88 20 10 00       	push   $0x102088
  101c46:	e8 b9 f6 ff ff       	call   101304 <NewProcSR>
  101c4b:	83 c4 04             	add    $0x4,%esp
  101c4e:	e8 49 ff ff ff       	call   101b9c <Scheduler>
  101c53:	8b 15 0c db 10 00    	mov    0x10db0c,%edx
  101c59:	89 d0                	mov    %edx,%eax
  101c5b:	c1 e0 02             	shl    $0x2,%eax
  101c5e:	01 d0                	add    %edx,%eax
  101c60:	8d 14 85 00 00 00 00 	lea    0x0(,%eax,4),%edx
  101c67:	b8 0c 1c 12 00       	mov    $0x121c0c,%eax
  101c6c:	8b 54 02 10          	mov    0x10(%edx,%eax,1),%edx
  101c70:	52                   	push   %edx
  101c71:	e8 fe f4 ff ff       	call   101174 <Loader>
  101c76:	83 c4 04             	add    $0x4,%esp
  101c79:	31 c0                	xor    %eax,%eax
  101c7b:	eb 03                	jmp    101c80 <main+0x4c>
  101c7d:	8d 76 00             	lea    0x0(%esi),%esi
  101c80:	c9                   	leave  
  101c81:	c3                   	ret    
  101c82:	8d 36                	lea    (%esi),%esi

00101c84 <Kernel>:
  101c84:	55                   	push   %ebp
  101c85:	89 e5                	mov    %esp,%ebp
  101c87:	83 ec 04             	sub    $0x4,%esp
  101c8a:	8b 15 0c db 10 00    	mov    0x10db0c,%edx
  101c90:	89 d0                	mov    %edx,%eax
  101c92:	c1 e0 02             	shl    $0x2,%eax
  101c95:	01 d0                	add    %edx,%eax
  101c97:	8d 14 85 00 00 00 00 	lea    0x0(,%eax,4),%edx
  101c9e:	b8 0c 1c 12 00       	mov    $0x121c0c,%eax
  101ca3:	8b 4d 08             	mov    0x8(%ebp),%ecx
  101ca6:	89 4c 02 10          	mov    %ecx,0x10(%edx,%eax,1)
  101caa:	8b 55 08             	mov    0x8(%ebp),%edx
  101cad:	8b 42 20             	mov    0x20(%edx),%eax
  101cb0:	83 c0 e0             	add    $0xffffffe0,%eax
  101cb3:	83 f8 14             	cmp    $0x14,%eax
  101cb6:	0f 87 18 01 00 00    	ja     101dd4 <Kernel+0x150>
  101cbc:	8b 04 85 c8 1c 10 00 	mov    0x101cc8(,%eax,4),%eax
  101cc3:	ff e0                	jmp    *%eax
  101cc5:	8d 76 00             	lea    0x0(%esi),%esi
  101cc8:	44                   	inc    %esp
  101cc9:	1d 10 00 d4 1d       	sbb    $0x1dd40010,%eax
  101cce:	10 00                	adc    %al,(%eax)
  101cd0:	d4 1d                	aam    $0x1d
  101cd2:	10 00                	adc    %al,(%eax)
  101cd4:	a4                   	movsb  %ds:(%esi),%es:(%edi)
  101cd5:	1d 10 00 bc 1d       	sbb    $0x1dbc0010,%eax
  101cda:	10 00                	adc    %al,(%eax)
  101cdc:	d4 1d                	aam    $0x1d
  101cde:	10 00                	adc    %al,(%eax)
  101ce0:	d4 1d                	aam    $0x1d
  101ce2:	10 00                	adc    %al,(%eax)
  101ce4:	d4 1d                	aam    $0x1d
  101ce6:	10 00                	adc    %al,(%eax)
  101ce8:	d4 1d                	aam    $0x1d
  101cea:	10 00                	adc    %al,(%eax)
  101cec:	d4 1d                	aam    $0x1d
  101cee:	10 00                	adc    %al,(%eax)
  101cf0:	d4 1d                	aam    $0x1d
  101cf2:	10 00                	adc    %al,(%eax)
  101cf4:	d4 1d                	aam    $0x1d
  101cf6:	10 00                	adc    %al,(%eax)
  101cf8:	d4 1d                	aam    $0x1d
  101cfa:	10 00                	adc    %al,(%eax)
  101cfc:	d4 1d                	aam    $0x1d
  101cfe:	10 00                	adc    %al,(%eax)
  101d00:	d4 1d                	aam    $0x1d
  101d02:	10 00                	adc    %al,(%eax)
  101d04:	d4 1d                	aam    $0x1d
  101d06:	10 00                	adc    %al,(%eax)
  101d08:	30 1d 10 00 84 1d    	xor    %bl,0x1d840010
  101d0e:	10 00                	adc    %al,(%eax)
  101d10:	1c 1d                	sbb    $0x1d,%al
  101d12:	10 00                	adc    %al,(%eax)
  101d14:	50                   	push   %eax
  101d15:	1d 10 00 6c 1d       	sbb    $0x1d6c0010,%eax
  101d1a:	10 00                	adc    %al,(%eax)
  101d1c:	8b 45 08             	mov    0x8(%ebp),%eax
  101d1f:	8b 50 1c             	mov    0x1c(%eax),%edx
  101d22:	52                   	push   %edx
  101d23:	e8 b8 f8 ff ff       	call   1015e0 <SleepSR>
  101d28:	83 c4 04             	add    $0x4,%esp
  101d2b:	e9 a4 00 00 00       	jmp    101dd4 <Kernel+0x150>
  101d30:	e8 9b f8 ff ff       	call   1015d0 <GetPidSR>
  101d35:	89 c0                	mov    %eax,%eax
  101d37:	8b 55 08             	mov    0x8(%ebp),%edx
  101d3a:	89 42 1c             	mov    %eax,0x1c(%edx)
  101d3d:	e9 92 00 00 00       	jmp    101dd4 <Kernel+0x150>
  101d42:	8d 36                	lea    (%esi),%esi
  101d44:	e8 c3 f7 ff ff       	call   10150c <TimerSR>
  101d49:	e9 86 00 00 00       	jmp    101dd4 <Kernel+0x150>
  101d4e:	8d 36                	lea    (%esi),%esi
  101d50:	8b 45 08             	mov    0x8(%ebp),%eax
  101d53:	8b 50 1c             	mov    0x1c(%eax),%edx
  101d56:	52                   	push   %edx
  101d57:	e8 38 f9 ff ff       	call   101694 <MuxCreateSR>
  101d5c:	83 c4 04             	add    $0x4,%esp
  101d5f:	89 c0                	mov    %eax,%eax
  101d61:	8b 55 08             	mov    0x8(%ebp),%edx
  101d64:	89 42 1c             	mov    %eax,0x1c(%edx)
  101d67:	eb 6b                	jmp    101dd4 <Kernel+0x150>
  101d69:	8d 76 00             	lea    0x0(%esi),%esi
  101d6c:	8b 45 08             	mov    0x8(%ebp),%eax
  101d6f:	8b 50 10             	mov    0x10(%eax),%edx
  101d72:	52                   	push   %edx
  101d73:	8b 45 08             	mov    0x8(%ebp),%eax
  101d76:	8b 50 1c             	mov    0x1c(%eax),%edx
  101d79:	52                   	push   %edx
  101d7a:	e8 ad f9 ff ff       	call   10172c <MuxOpSR>
  101d7f:	83 c4 08             	add    $0x8,%esp
  101d82:	eb 50                	jmp    101dd4 <Kernel+0x150>
  101d84:	8b 45 08             	mov    0x8(%ebp),%eax
  101d87:	0f be 50 18          	movsbl 0x18(%eax),%edx
  101d8b:	52                   	push   %edx
  101d8c:	8b 45 08             	mov    0x8(%ebp),%eax
  101d8f:	8b 50 10             	mov    0x10(%eax),%edx
  101d92:	52                   	push   %edx
  101d93:	8b 45 08             	mov    0x8(%ebp),%eax
  101d96:	8b 50 1c             	mov    0x1c(%eax),%edx
  101d99:	52                   	push   %edx
  101d9a:	e8 a9 f8 ff ff       	call   101648 <ShowCharSR>
  101d9f:	83 c4 0c             	add    $0xc,%esp
  101da2:	eb 30                	jmp    101dd4 <Kernel+0x150>
  101da4:	6a 00                	push   $0x0
  101da6:	e8 f5 fa ff ff       	call   1018a0 <TermSR>
  101dab:	83 c4 04             	add    $0x4,%esp
  101dae:	6a 63                	push   $0x63
  101db0:	6a 20                	push   $0x20
  101db2:	e8 99 28 00 00       	call   104650 <outportb>
  101db7:	83 c4 08             	add    $0x8,%esp
  101dba:	eb 18                	jmp    101dd4 <Kernel+0x150>
  101dbc:	6a 01                	push   $0x1
  101dbe:	e8 dd fa ff ff       	call   1018a0 <TermSR>
  101dc3:	83 c4 04             	add    $0x4,%esp
  101dc6:	6a 64                	push   $0x64
  101dc8:	6a 20                	push   $0x20
  101dca:	e8 81 28 00 00       	call   104650 <outportb>
  101dcf:	83 c4 08             	add    $0x8,%esp
  101dd2:	eb 00                	jmp    101dd4 <Kernel+0x150>
  101dd4:	e8 ef 1c 00 00       	call   103ac8 <cons_kbhit>
  101dd9:	89 c0                	mov    %eax,%eax
  101ddb:	85 c0                	test   %eax,%eax
  101ddd:	74 2c                	je     101e0b <Kernel+0x187>
  101ddf:	e8 ec 22 00 00       	call   1040d0 <cons_getchar>
  101de4:	89 c0                	mov    %eax,%eax
  101de6:	88 45 ff             	mov    %al,-0x1(%ebp)
  101de9:	80 7d ff 62          	cmpb   $0x62,-0x1(%ebp)
  101ded:	75 09                	jne    101df8 <Kernel+0x174>
  101def:	e8 80 19 00 00       	call   103774 <breakpoint>
  101df4:	eb 15                	jmp    101e0b <Kernel+0x187>
  101df6:	8d 36                	lea    (%esi),%esi
  101df8:	80 7d ff 6e          	cmpb   $0x6e,-0x1(%ebp)
  101dfc:	75 0d                	jne    101e0b <Kernel+0x187>
  101dfe:	68 14 21 10 00       	push   $0x102114
  101e03:	e8 fc f4 ff ff       	call   101304 <NewProcSR>
  101e08:	83 c4 04             	add    $0x4,%esp
  101e0b:	e8 8c fd ff ff       	call   101b9c <Scheduler>
  101e10:	8b 15 0c db 10 00    	mov    0x10db0c,%edx
  101e16:	89 d0                	mov    %edx,%eax
  101e18:	c1 e0 02             	shl    $0x2,%eax
  101e1b:	01 d0                	add    %edx,%eax
  101e1d:	8d 14 85 00 00 00 00 	lea    0x0(,%eax,4),%edx
  101e24:	b8 0c 1c 12 00       	mov    $0x121c0c,%eax
  101e29:	8b 54 02 10          	mov    0x10(%edx,%eax,1),%edx
  101e2d:	52                   	push   %edx
  101e2e:	e8 41 f3 ff ff       	call   101174 <Loader>
  101e33:	83 c4 04             	add    $0x4,%esp
  101e36:	c9                   	leave  
  101e37:	c3                   	ret    

00101e38 <InitTerm>:
  101e38:	55                   	push   %ebp
  101e39:	89 e5                	mov    %esp,%ebp
  101e3b:	83 ec 08             	sub    $0x8,%esp
  101e3e:	6a 54                	push   $0x54
  101e40:	8b 55 08             	mov    0x8(%ebp),%edx
  101e43:	89 d0                	mov    %edx,%eax
  101e45:	01 c0                	add    %eax,%eax
  101e47:	01 d0                	add    %edx,%eax
  101e49:	89 c2                	mov    %eax,%edx
  101e4b:	c1 e2 05             	shl    $0x5,%edx
  101e4e:	8d 82 c8 58 10 00    	lea    0x1058c8(%edx),%eax
  101e54:	50                   	push   %eax
  101e55:	e8 62 f3 ff ff       	call   1011bc <Bzero>
  101e5a:	83 c4 08             	add    $0x8,%esp
  101e5d:	6a 14                	push   $0x14
  101e5f:	e8 2c 04 00 00       	call   102290 <MuxCreateCall>
  101e64:	83 c4 04             	add    $0x4,%esp
  101e67:	89 c0                	mov    %eax,%eax
  101e69:	8b 4d 08             	mov    0x8(%ebp),%ecx
  101e6c:	89 ca                	mov    %ecx,%edx
  101e6e:	01 d2                	add    %edx,%edx
  101e70:	01 ca                	add    %ecx,%edx
  101e72:	89 d1                	mov    %edx,%ecx
  101e74:	c1 e1 05             	shl    $0x5,%ecx
  101e77:	ba bc 58 10 00       	mov    $0x1058bc,%edx
  101e7c:	89 44 11 08          	mov    %eax,0x8(%ecx,%edx,1)
  101e80:	68 80 00 00 00       	push   $0x80
  101e85:	8b 55 08             	mov    0x8(%ebp),%edx
  101e88:	89 d0                	mov    %edx,%eax
  101e8a:	01 c0                	add    %eax,%eax
  101e8c:	01 d0                	add    %edx,%eax
  101e8e:	89 c2                	mov    %eax,%edx
  101e90:	c1 e2 05             	shl    $0x5,%edx
  101e93:	b8 bc 58 10 00       	mov    $0x1058bc,%eax
  101e98:	8b 54 02 04          	mov    0x4(%edx,%eax,1),%edx
  101e9c:	83 c2 03             	add    $0x3,%edx
  101e9f:	52                   	push   %edx
  101ea0:	e8 ab 27 00 00       	call   104650 <outportb>
  101ea5:	83 c4 08             	add    $0x8,%esp
  101ea8:	6a 0c                	push   $0xc
  101eaa:	8b 55 08             	mov    0x8(%ebp),%edx
  101ead:	89 d0                	mov    %edx,%eax
  101eaf:	01 c0                	add    %eax,%eax
  101eb1:	01 d0                	add    %edx,%eax
  101eb3:	89 c2                	mov    %eax,%edx
  101eb5:	c1 e2 05             	shl    $0x5,%edx
  101eb8:	b8 bc 58 10 00       	mov    $0x1058bc,%eax
  101ebd:	8b 54 02 04          	mov    0x4(%edx,%eax,1),%edx
  101ec1:	52                   	push   %edx
  101ec2:	e8 89 27 00 00       	call   104650 <outportb>
  101ec7:	83 c4 08             	add    $0x8,%esp
  101eca:	6a 00                	push   $0x0
  101ecc:	8b 55 08             	mov    0x8(%ebp),%edx
  101ecf:	89 d0                	mov    %edx,%eax
  101ed1:	01 c0                	add    %eax,%eax
  101ed3:	01 d0                	add    %edx,%eax
  101ed5:	89 c2                	mov    %eax,%edx
  101ed7:	c1 e2 05             	shl    $0x5,%edx
  101eda:	b8 bc 58 10 00       	mov    $0x1058bc,%eax
  101edf:	8b 54 02 04          	mov    0x4(%edx,%eax,1),%edx
  101ee3:	42                   	inc    %edx
  101ee4:	52                   	push   %edx
  101ee5:	e8 66 27 00 00       	call   104650 <outportb>
  101eea:	83 c4 08             	add    $0x8,%esp
  101eed:	6a 1a                	push   $0x1a
  101eef:	8b 55 08             	mov    0x8(%ebp),%edx
  101ef2:	89 d0                	mov    %edx,%eax
  101ef4:	01 c0                	add    %eax,%eax
  101ef6:	01 d0                	add    %edx,%eax
  101ef8:	89 c2                	mov    %eax,%edx
  101efa:	c1 e2 05             	shl    $0x5,%edx
  101efd:	b8 bc 58 10 00       	mov    $0x1058bc,%eax
  101f02:	8b 54 02 04          	mov    0x4(%edx,%eax,1),%edx
  101f06:	83 c2 03             	add    $0x3,%edx
  101f09:	52                   	push   %edx
  101f0a:	e8 41 27 00 00       	call   104650 <outportb>
  101f0f:	83 c4 08             	add    $0x8,%esp
  101f12:	6a 00                	push   $0x0
  101f14:	8b 55 08             	mov    0x8(%ebp),%edx
  101f17:	89 d0                	mov    %edx,%eax
  101f19:	01 c0                	add    %eax,%eax
  101f1b:	01 d0                	add    %edx,%eax
  101f1d:	89 c2                	mov    %eax,%edx
  101f1f:	c1 e2 05             	shl    $0x5,%edx
  101f22:	b8 bc 58 10 00       	mov    $0x1058bc,%eax
  101f27:	8b 54 02 04          	mov    0x4(%edx,%eax,1),%edx
  101f2b:	42                   	inc    %edx
  101f2c:	52                   	push   %edx
  101f2d:	e8 1e 27 00 00       	call   104650 <outportb>
  101f32:	83 c4 08             	add    $0x8,%esp
  101f35:	6a 0b                	push   $0xb
  101f37:	8b 55 08             	mov    0x8(%ebp),%edx
  101f3a:	89 d0                	mov    %edx,%eax
  101f3c:	01 c0                	add    %eax,%eax
  101f3e:	01 d0                	add    %edx,%eax
  101f40:	89 c2                	mov    %eax,%edx
  101f42:	c1 e2 05             	shl    $0x5,%edx
  101f45:	b8 bc 58 10 00       	mov    $0x1058bc,%eax
  101f4a:	8b 54 02 04          	mov    0x4(%edx,%eax,1),%edx
  101f4e:	83 c2 04             	add    $0x4,%edx
  101f51:	52                   	push   %edx
  101f52:	e8 f9 26 00 00       	call   104650 <outportb>
  101f57:	83 c4 08             	add    $0x8,%esp
  101f5a:	c7 45 fc 00 00 00 00 	movl   $0x0,-0x4(%ebp)
  101f61:	81 7d fc 34 b7 0c 00 	cmpl   $0xcb734,-0x4(%ebp)
  101f68:	7e 02                	jle    101f6c <InitTerm+0x134>
  101f6a:	eb 08                	jmp    101f74 <InitTerm+0x13c>
  101f6c:	e4 80                	in     $0x80,%al
  101f6e:	ff 45 fc             	incl   -0x4(%ebp)
  101f71:	eb ee                	jmp    101f61 <InitTerm+0x129>
  101f73:	90                   	nop
  101f74:	6a 03                	push   $0x3
  101f76:	8b 55 08             	mov    0x8(%ebp),%edx
  101f79:	89 d0                	mov    %edx,%eax
  101f7b:	01 c0                	add    %eax,%eax
  101f7d:	01 d0                	add    %edx,%eax
  101f7f:	89 c2                	mov    %eax,%edx
  101f81:	c1 e2 05             	shl    $0x5,%edx
  101f84:	b8 bc 58 10 00       	mov    $0x1058bc,%eax
  101f89:	8b 54 02 04          	mov    0x4(%edx,%eax,1),%edx
  101f8d:	42                   	inc    %edx
  101f8e:	52                   	push   %edx
  101f8f:	e8 bc 26 00 00       	call   104650 <outportb>
  101f94:	83 c4 08             	add    $0x8,%esp
  101f97:	c7 45 fc 00 00 00 00 	movl   $0x0,-0x4(%ebp)
  101f9e:	81 7d fc 34 b7 0c 00 	cmpl   $0xcb734,-0x4(%ebp)
  101fa5:	7e 05                	jle    101fac <InitTerm+0x174>
  101fa7:	eb 0b                	jmp    101fb4 <InitTerm+0x17c>
  101fa9:	8d 76 00             	lea    0x0(%esi),%esi
  101fac:	e4 80                	in     $0x80,%al
  101fae:	ff 45 fc             	incl   -0x4(%ebp)
  101fb1:	eb eb                	jmp    101f9e <InitTerm+0x166>
  101fb3:	90                   	nop
  101fb4:	c7 45 f8 00 00 00 00 	movl   $0x0,-0x8(%ebp)
  101fbb:	83 7d f8 18          	cmpl   $0x18,-0x8(%ebp)
  101fbf:	7e 07                	jle    101fc8 <InitTerm+0x190>
  101fc1:	e9 82 00 00 00       	jmp    102048 <InitTerm+0x210>
  101fc6:	8d 36                	lea    (%esi),%esi
  101fc8:	6a 0a                	push   $0xa
  101fca:	8b 55 08             	mov    0x8(%ebp),%edx
  101fcd:	89 d0                	mov    %edx,%eax
  101fcf:	01 c0                	add    %eax,%eax
  101fd1:	01 d0                	add    %edx,%eax
  101fd3:	89 c2                	mov    %eax,%edx
  101fd5:	c1 e2 05             	shl    $0x5,%edx
  101fd8:	b8 bc 58 10 00       	mov    $0x1058bc,%eax
  101fdd:	8b 54 02 04          	mov    0x4(%edx,%eax,1),%edx
  101fe1:	52                   	push   %edx
  101fe2:	e8 69 26 00 00       	call   104650 <outportb>
  101fe7:	83 c4 08             	add    $0x8,%esp
  101fea:	c7 45 fc 00 00 00 00 	movl   $0x0,-0x4(%ebp)
  101ff1:	81 7d fc 02 d9 00 00 	cmpl   $0xd902,-0x4(%ebp)
  101ff8:	7e 02                	jle    101ffc <InitTerm+0x1c4>
  101ffa:	eb 08                	jmp    102004 <InitTerm+0x1cc>
  101ffc:	e4 80                	in     $0x80,%al
  101ffe:	ff 45 fc             	incl   -0x4(%ebp)
  102001:	eb ee                	jmp    101ff1 <InitTerm+0x1b9>
  102003:	90                   	nop
  102004:	6a 0d                	push   $0xd
  102006:	8b 55 08             	mov    0x8(%ebp),%edx
  102009:	89 d0                	mov    %edx,%eax
  10200b:	01 c0                	add    %eax,%eax
  10200d:	01 d0                	add    %edx,%eax
  10200f:	89 c2                	mov    %eax,%edx
  102011:	c1 e2 05             	shl    $0x5,%edx
  102014:	b8 bc 58 10 00       	mov    $0x1058bc,%eax
  102019:	8b 54 02 04          	mov    0x4(%edx,%eax,1),%edx
  10201d:	52                   	push   %edx
  10201e:	e8 2d 26 00 00       	call   104650 <outportb>
  102023:	83 c4 08             	add    $0x8,%esp
  102026:	c7 45 fc 00 00 00 00 	movl   $0x0,-0x4(%ebp)
  10202d:	81 7d fc 02 d9 00 00 	cmpl   $0xd902,-0x4(%ebp)
  102034:	7e 02                	jle    102038 <InitTerm+0x200>
  102036:	eb 08                	jmp    102040 <InitTerm+0x208>
  102038:	e4 80                	in     $0x80,%al
  10203a:	ff 45 fc             	incl   -0x4(%ebp)
  10203d:	eb ee                	jmp    10202d <InitTerm+0x1f5>
  10203f:	90                   	nop
  102040:	ff 45 f8             	incl   -0x8(%ebp)
  102043:	e9 73 ff ff ff       	jmp    101fbb <InitTerm+0x183>
  102048:	8b 55 08             	mov    0x8(%ebp),%edx
  10204b:	89 d0                	mov    %edx,%eax
  10204d:	01 c0                	add    %eax,%eax
  10204f:	01 d0                	add    %edx,%eax
  102051:	89 c2                	mov    %eax,%edx
  102053:	c1 e2 05             	shl    $0x5,%edx
  102056:	b8 bc 58 10 00       	mov    $0x1058bc,%eax
  10205b:	8b 54 02 04          	mov    0x4(%edx,%eax,1),%edx
  10205f:	52                   	push   %edx
  102060:	e8 e3 25 00 00       	call   104648 <inportb>
  102065:	83 c4 04             	add    $0x4,%esp
  102068:	c7 45 fc 00 00 00 00 	movl   $0x0,-0x4(%ebp)
  10206f:	81 7d fc 34 b7 0c 00 	cmpl   $0xcb734,-0x4(%ebp)
  102076:	7e 04                	jle    10207c <InitTerm+0x244>
  102078:	eb 0a                	jmp    102084 <InitTerm+0x24c>
  10207a:	8d 36                	lea    (%esi),%esi
  10207c:	e4 80                	in     $0x80,%al
  10207e:	ff 45 fc             	incl   -0x4(%ebp)
  102081:	eb ec                	jmp    10206f <InitTerm+0x237>
  102083:	90                   	nop
  102084:	c9                   	leave  
  102085:	c3                   	ret    
  102086:	8d 36                	lea    (%esi),%esi

00102088 <InitProc>:
  102088:	55                   	push   %ebp
  102089:	89 e5                	mov    %esp,%ebp
  10208b:	83 ec 04             	sub    $0x4,%esp
  10208e:	6a 01                	push   $0x1
  102090:	e8 fb 01 00 00       	call   102290 <MuxCreateCall>
  102095:	83 c4 04             	add    $0x4,%esp
  102098:	89 c0                	mov    %eax,%eax
  10209a:	a3 08 db 10 00       	mov    %eax,0x10db08
  10209f:	6a 00                	push   $0x0
  1020a1:	e8 92 fd ff ff       	call   101e38 <InitTerm>
  1020a6:	83 c4 04             	add    $0x4,%esp
  1020a9:	6a 01                	push   $0x1
  1020ab:	e8 88 fd ff ff       	call   101e38 <InitTerm>
  1020b0:	83 c4 04             	add    $0x4,%esp
  1020b3:	eb 07                	jmp    1020bc <InitProc+0x34>
  1020b5:	8d 76 00             	lea    0x0(%esi),%esi
  1020b8:	eb 56                	jmp    102110 <InitProc+0x88>
  1020ba:	8d 36                	lea    (%esi),%esi
  1020bc:	6a 2e                	push   $0x2e
  1020be:	6a 00                	push   $0x0
  1020c0:	6a 00                	push   $0x0
  1020c2:	e8 9d 01 00 00       	call   102264 <ShowCharCall>
  1020c7:	83 c4 0c             	add    $0xc,%esp
  1020ca:	c7 45 fc 00 00 00 00 	movl   $0x0,-0x4(%ebp)
  1020d1:	81 7d fc 34 b7 0c 00 	cmpl   $0xcb734,-0x4(%ebp)
  1020d8:	7e 02                	jle    1020dc <InitProc+0x54>
  1020da:	eb 08                	jmp    1020e4 <InitProc+0x5c>
  1020dc:	e4 80                	in     $0x80,%al
  1020de:	ff 45 fc             	incl   -0x4(%ebp)
  1020e1:	eb ee                	jmp    1020d1 <InitProc+0x49>
  1020e3:	90                   	nop
  1020e4:	6a 20                	push   $0x20
  1020e6:	6a 00                	push   $0x0
  1020e8:	6a 00                	push   $0x0
  1020ea:	e8 75 01 00 00       	call   102264 <ShowCharCall>
  1020ef:	83 c4 0c             	add    $0xc,%esp
  1020f2:	c7 45 fc 00 00 00 00 	movl   $0x0,-0x4(%ebp)
  1020f9:	81 7d fc 34 b7 0c 00 	cmpl   $0xcb734,-0x4(%ebp)
  102100:	7e 02                	jle    102104 <InitProc+0x7c>
  102102:	eb 08                	jmp    10210c <InitProc+0x84>
  102104:	e4 80                	in     $0x80,%al
  102106:	ff 45 fc             	incl   -0x4(%ebp)
  102109:	eb ee                	jmp    1020f9 <InitProc+0x71>
  10210b:	90                   	nop
  10210c:	eb a5                	jmp    1020b3 <InitProc+0x2b>
  10210e:	8d 36                	lea    (%esi),%esi
  102110:	c9                   	leave  
  102111:	c3                   	ret    
  102112:	8d 36                	lea    (%esi),%esi

00102114 <UserProc>:
  102114:	55                   	push   %ebp
  102115:	89 e5                	mov    %esp,%ebp
  102117:	81 ec dc 00 00 00    	sub    $0xdc,%esp
  10211d:	57                   	push   %edi
  10211e:	56                   	push   %esi
  10211f:	e8 2c 01 00 00       	call   102250 <GetPidCall>
  102124:	89 c0                	mov    %eax,%eax
  102126:	89 45 fc             	mov    %eax,-0x4(%ebp)
  102129:	8d 7d 94             	lea    -0x6c(%ebp),%edi
  10212c:	be 60 55 10 00       	mov    $0x105560,%esi
  102131:	fc                   	cld    
  102132:	b9 10 00 00 00       	mov    $0x10,%ecx
  102137:	f3 a5                	rep movsl %ds:(%esi),%es:(%edi)
  102139:	a4                   	movsb  %ds:(%esi),%es:(%edi)
  10213a:	8d 45 d5             	lea    -0x2b(%ebp),%eax
  10213d:	6a 24                	push   $0x24
  10213f:	6a 00                	push   $0x0
  102141:	50                   	push   %eax
  102142:	e8 9d 26 00 00       	call   1047e4 <memset>
  102147:	83 c4 0c             	add    $0xc,%esp
  10214a:	8d bd 2c ff ff ff    	lea    -0xd4(%ebp),%edi
  102150:	be a1 55 10 00       	mov    $0x1055a1,%esi
  102155:	fc                   	cld    
  102156:	b9 10 00 00 00       	mov    $0x10,%ecx
  10215b:	f3 a5                	rep movsl %ds:(%esi),%es:(%edi)
  10215d:	a4                   	movsb  %ds:(%esi),%es:(%edi)
  10215e:	8d 85 6d ff ff ff    	lea    -0x93(%ebp),%eax
  102164:	6a 24                	push   $0x24
  102166:	6a 00                	push   $0x0
  102168:	50                   	push   %eax
  102169:	e8 76 26 00 00       	call   1047e4 <memset>
  10216e:	83 c4 0c             	add    $0xc,%esp
  102171:	c7 85 28 ff ff ff 23 	movl   $0x23,-0xd8(%ebp)
  102178:	00 00 00 
  10217b:	8b 4d fc             	mov    -0x4(%ebp),%ecx
  10217e:	89 8d 24 ff ff ff    	mov    %ecx,-0xdc(%ebp)
  102184:	8b 85 24 ff ff ff    	mov    -0xdc(%ebp),%eax
  10218a:	b9 0a 00 00 00       	mov    $0xa,%ecx
  10218f:	99                   	cltd   
  102190:	f7 f9                	idiv   %ecx
  102192:	88 c1                	mov    %al,%cl
  102194:	80 c1 30             	add    $0x30,%cl
  102197:	88 4d 98             	mov    %cl,-0x68(%ebp)
  10219a:	8b 4d fc             	mov    -0x4(%ebp),%ecx
  10219d:	89 8d 24 ff ff ff    	mov    %ecx,-0xdc(%ebp)
  1021a3:	8b 85 24 ff ff ff    	mov    -0xdc(%ebp),%eax
  1021a9:	b9 0a 00 00 00       	mov    $0xa,%ecx
  1021ae:	99                   	cltd   
  1021af:	f7 f9                	idiv   %ecx
  1021b1:	88 d1                	mov    %dl,%cl
  1021b3:	80 c1 30             	add    $0x30,%cl
  1021b6:	88 4d 99             	mov    %cl,-0x67(%ebp)
  1021b9:	eb 09                	jmp    1021c4 <UserProc+0xb0>
  1021bb:	90                   	nop
  1021bc:	e9 83 00 00 00       	jmp    102244 <UserProc+0x130>
  1021c1:	8d 76 00             	lea    0x0(%esi),%esi
  1021c4:	6a 01                	push   $0x1
  1021c6:	a1 08 db 10 00       	mov    0x10db08,%eax
  1021cb:	50                   	push   %eax
  1021cc:	e8 d7 00 00 00       	call   1022a8 <MuxOpCall>
  1021d1:	83 c4 08             	add    $0x8,%esp
  1021d4:	8d 45 94             	lea    -0x6c(%ebp),%eax
  1021d7:	50                   	push   %eax
  1021d8:	6a 01                	push   $0x1
  1021da:	e8 dd 00 00 00       	call   1022bc <WriteCall>
  1021df:	83 c4 08             	add    $0x8,%esp
  1021e2:	8d 45 94             	lea    -0x6c(%ebp),%eax
  1021e5:	50                   	push   %eax
  1021e6:	8b 85 28 ff ff ff    	mov    -0xd8(%ebp),%eax
  1021ec:	50                   	push   %eax
  1021ed:	e8 ca 00 00 00       	call   1022bc <WriteCall>
  1021f2:	83 c4 08             	add    $0x8,%esp
  1021f5:	68 e2 55 10 00       	push   $0x1055e2
  1021fa:	8b 85 28 ff ff ff    	mov    -0xd8(%ebp),%eax
  102200:	50                   	push   %eax
  102201:	e8 b6 00 00 00       	call   1022bc <WriteCall>
  102206:	83 c4 08             	add    $0x8,%esp
  102209:	6a 32                	push   $0x32
  10220b:	e8 74 00 00 00       	call   102284 <SleepCall>
  102210:	83 c4 04             	add    $0x4,%esp
  102213:	8d 85 2c ff ff ff    	lea    -0xd4(%ebp),%eax
  102219:	50                   	push   %eax
  10221a:	6a 01                	push   $0x1
  10221c:	e8 9b 00 00 00       	call   1022bc <WriteCall>
  102221:	83 c4 08             	add    $0x8,%esp
  102224:	6a 32                	push   $0x32
  102226:	e8 59 00 00 00       	call   102284 <SleepCall>
  10222b:	83 c4 04             	add    $0x4,%esp
  10222e:	6a 02                	push   $0x2
  102230:	a1 08 db 10 00       	mov    0x10db08,%eax
  102235:	50                   	push   %eax
  102236:	e8 6d 00 00 00       	call   1022a8 <MuxOpCall>
  10223b:	83 c4 08             	add    $0x8,%esp
  10223e:	e9 76 ff ff ff       	jmp    1021b9 <UserProc+0xa5>
  102243:	90                   	nop
  102244:	8d a5 1c ff ff ff    	lea    -0xe4(%ebp),%esp
  10224a:	5e                   	pop    %esi
  10224b:	5f                   	pop    %edi
  10224c:	c9                   	leave  
  10224d:	c3                   	ret    
  10224e:	90                   	nop
  10224f:	90                   	nop

00102250 <GetPidCall>:
  102250:	55                   	push   %ebp
  102251:	89 e5                	mov    %esp,%ebp
  102253:	83 ec 04             	sub    $0x4,%esp
  102256:	cd 30                	int    $0x30
  102258:	89 45 fc             	mov    %eax,-0x4(%ebp)
  10225b:	8b 45 fc             	mov    -0x4(%ebp),%eax
  10225e:	eb 00                	jmp    102260 <GetPidCall+0x10>
  102260:	c9                   	leave  
  102261:	c3                   	ret    
  102262:	8d 36                	lea    (%esi),%esi

00102264 <ShowCharCall>:
  102264:	55                   	push   %ebp
  102265:	89 e5                	mov    %esp,%ebp
  102267:	83 ec 04             	sub    $0x4,%esp
  10226a:	53                   	push   %ebx
  10226b:	8b 55 10             	mov    0x10(%ebp),%edx
  10226e:	88 55 ff             	mov    %dl,-0x1(%ebp)
  102271:	8b 45 08             	mov    0x8(%ebp),%eax
  102274:	8b 5d 0c             	mov    0xc(%ebp),%ebx
  102277:	8b 4d ff             	mov    -0x1(%ebp),%ecx
  10227a:	cd 31                	int    $0x31
  10227c:	8b 5d f8             	mov    -0x8(%ebp),%ebx
  10227f:	c9                   	leave  
  102280:	c3                   	ret    
  102281:	8d 76 00             	lea    0x0(%esi),%esi

00102284 <SleepCall>:
  102284:	55                   	push   %ebp
  102285:	89 e5                	mov    %esp,%ebp
  102287:	8b 45 08             	mov    0x8(%ebp),%eax
  10228a:	cd 32                	int    $0x32
  10228c:	c9                   	leave  
  10228d:	c3                   	ret    
  10228e:	8d 36                	lea    (%esi),%esi

00102290 <MuxCreateCall>:
  102290:	55                   	push   %ebp
  102291:	89 e5                	mov    %esp,%ebp
  102293:	83 ec 04             	sub    $0x4,%esp
  102296:	8b 45 08             	mov    0x8(%ebp),%eax
  102299:	cd 33                	int    $0x33
  10229b:	89 45 fc             	mov    %eax,-0x4(%ebp)
  10229e:	8b 45 fc             	mov    -0x4(%ebp),%eax
  1022a1:	eb 01                	jmp    1022a4 <MuxCreateCall+0x14>
  1022a3:	90                   	nop
  1022a4:	c9                   	leave  
  1022a5:	c3                   	ret    
  1022a6:	8d 36                	lea    (%esi),%esi

001022a8 <MuxOpCall>:
  1022a8:	55                   	push   %ebp
  1022a9:	89 e5                	mov    %esp,%ebp
  1022ab:	53                   	push   %ebx
  1022ac:	8b 45 08             	mov    0x8(%ebp),%eax
  1022af:	8b 5d 0c             	mov    0xc(%ebp),%ebx
  1022b2:	cd 34                	int    $0x34
  1022b4:	8b 5d fc             	mov    -0x4(%ebp),%ebx
  1022b7:	c9                   	leave  
  1022b8:	c3                   	ret    
  1022b9:	8d 76 00             	lea    0x0(%esi),%esi

001022bc <WriteCall>:
  1022bc:	55                   	push   %ebp
  1022bd:	89 e5                	mov    %esp,%ebp
  1022bf:	83 ec 0c             	sub    $0xc,%esp
  1022c2:	e8 89 ff ff ff       	call   102250 <GetPidCall>
  1022c7:	89 c0                	mov    %eax,%eax
  1022c9:	89 45 fc             	mov    %eax,-0x4(%ebp)
  1022cc:	c7 45 f8 00 00 00 00 	movl   $0x0,-0x8(%ebp)
  1022d3:	83 7d 08 01          	cmpl   $0x1,0x8(%ebp)
  1022d7:	75 33                	jne    10230c <WriteCall+0x50>
  1022d9:	8b 45 0c             	mov    0xc(%ebp),%eax
  1022dc:	80 38 00             	cmpb   $0x0,(%eax)
  1022df:	75 03                	jne    1022e4 <WriteCall+0x28>
  1022e1:	eb 21                	jmp    102304 <WriteCall+0x48>
  1022e3:	90                   	nop
  1022e4:	8b 45 0c             	mov    0xc(%ebp),%eax
  1022e7:	0f be 10             	movsbl (%eax),%edx
  1022ea:	52                   	push   %edx
  1022eb:	8b 45 f8             	mov    -0x8(%ebp),%eax
  1022ee:	50                   	push   %eax
  1022ef:	8b 45 fc             	mov    -0x4(%ebp),%eax
  1022f2:	50                   	push   %eax
  1022f3:	e8 6c ff ff ff       	call   102264 <ShowCharCall>
  1022f8:	83 c4 0c             	add    $0xc,%esp
  1022fb:	ff 45 f8             	incl   -0x8(%ebp)
  1022fe:	ff 45 0c             	incl   0xc(%ebp)
  102301:	eb d6                	jmp    1022d9 <WriteCall+0x1d>
  102303:	90                   	nop
  102304:	e9 cb 00 00 00       	jmp    1023d4 <WriteCall+0x118>
  102309:	8d 76 00             	lea    0x0(%esi),%esi
  10230c:	83 7d 08 23          	cmpl   $0x23,0x8(%ebp)
  102310:	75 0a                	jne    10231c <WriteCall+0x60>
  102312:	c7 45 f4 00 00 00 00 	movl   $0x0,-0xc(%ebp)
  102319:	eb 0e                	jmp    102329 <WriteCall+0x6d>
  10231b:	90                   	nop
  10231c:	83 7d 08 24          	cmpl   $0x24,0x8(%ebp)
  102320:	75 07                	jne    102329 <WriteCall+0x6d>
  102322:	c7 45 f4 01 00 00 00 	movl   $0x1,-0xc(%ebp)
  102329:	6a 01                	push   $0x1
  10232b:	e8 60 ff ff ff       	call   102290 <MuxCreateCall>
  102330:	83 c4 04             	add    $0x4,%esp
  102333:	89 c0                	mov    %eax,%eax
  102335:	8b 4d f4             	mov    -0xc(%ebp),%ecx
  102338:	89 ca                	mov    %ecx,%edx
  10233a:	01 d2                	add    %edx,%edx
  10233c:	01 ca                	add    %ecx,%edx
  10233e:	89 d1                	mov    %edx,%ecx
  102340:	c1 e1 05             	shl    $0x5,%ecx
  102343:	ba bc 58 10 00       	mov    $0x1058bc,%edx
  102348:	89 44 11 08          	mov    %eax,0x8(%ecx,%edx,1)
  10234c:	8b 45 0c             	mov    0xc(%ebp),%eax
  10234f:	80 38 00             	cmpb   $0x0,(%eax)
  102352:	75 04                	jne    102358 <WriteCall+0x9c>
  102354:	eb 7e                	jmp    1023d4 <WriteCall+0x118>
  102356:	8d 36                	lea    (%esi),%esi
  102358:	6a 01                	push   $0x1
  10235a:	8b 55 f4             	mov    -0xc(%ebp),%edx
  10235d:	89 d0                	mov    %edx,%eax
  10235f:	01 c0                	add    %eax,%eax
  102361:	01 d0                	add    %edx,%eax
  102363:	89 c2                	mov    %eax,%edx
  102365:	c1 e2 05             	shl    $0x5,%edx
  102368:	b8 bc 58 10 00       	mov    $0x1058bc,%eax
  10236d:	8b 54 02 08          	mov    0x8(%edx,%eax,1),%edx
  102371:	52                   	push   %edx
  102372:	e8 31 ff ff ff       	call   1022a8 <MuxOpCall>
  102377:	83 c4 08             	add    $0x8,%esp
  10237a:	8b 55 f4             	mov    -0xc(%ebp),%edx
  10237d:	89 d0                	mov    %edx,%eax
  10237f:	01 c0                	add    %eax,%eax
  102381:	01 d0                	add    %edx,%eax
  102383:	89 c2                	mov    %eax,%edx
  102385:	c1 e2 05             	shl    $0x5,%edx
  102388:	8d 82 c8 58 10 00    	lea    0x1058c8(%edx),%eax
  10238e:	50                   	push   %eax
  10238f:	8b 45 0c             	mov    0xc(%ebp),%eax
  102392:	0f be 10             	movsbl (%eax),%edx
  102395:	52                   	push   %edx
  102396:	e8 2d ef ff ff       	call   1012c8 <EnQ>
  10239b:	83 c4 08             	add    $0x8,%esp
  10239e:	83 7d 08 23          	cmpl   $0x23,0x8(%ebp)
  1023a2:	75 04                	jne    1023a8 <WriteCall+0xec>
  1023a4:	cd 23                	int    $0x23
  1023a6:	eb 02                	jmp    1023aa <WriteCall+0xee>
  1023a8:	cd 24                	int    $0x24
  1023aa:	ff 45 0c             	incl   0xc(%ebp)
  1023ad:	6a 02                	push   $0x2
  1023af:	8b 55 f4             	mov    -0xc(%ebp),%edx
  1023b2:	89 d0                	mov    %edx,%eax
  1023b4:	01 c0                	add    %eax,%eax
  1023b6:	01 d0                	add    %edx,%eax
  1023b8:	89 c2                	mov    %eax,%edx
  1023ba:	c1 e2 05             	shl    $0x5,%edx
  1023bd:	b8 bc 58 10 00       	mov    $0x1058bc,%eax
  1023c2:	8b 54 02 08          	mov    0x8(%edx,%eax,1),%edx
  1023c6:	52                   	push   %edx
  1023c7:	e8 dc fe ff ff       	call   1022a8 <MuxOpCall>
  1023cc:	83 c4 08             	add    $0x8,%esp
  1023cf:	e9 78 ff ff ff       	jmp    10234c <WriteCall+0x90>
  1023d4:	c9                   	leave  
  1023d5:	c3                   	ret    
  1023d6:	90                   	nop
  1023d7:	90                   	nop

001023d8 <_return_to_prog>:
  1023d8:	66                   	data16
  1023d9:	8e 15 f8 24 12 00    	mov    0x1224f8,%ss
  1023df:	8b 25 dc 24 12 00    	mov    0x1224dc,%esp
  1023e5:	8b 0d d0 24 12 00    	mov    0x1224d0,%ecx
  1023eb:	8b 15 d4 24 12 00    	mov    0x1224d4,%edx
  1023f1:	8b 1d d8 24 12 00    	mov    0x1224d8,%ebx
  1023f7:	8b 2d e0 24 12 00    	mov    0x1224e0,%ebp
  1023fd:	8b 35 e4 24 12 00    	mov    0x1224e4,%esi
  102403:	8b 3d e8 24 12 00    	mov    0x1224e8,%edi
  102409:	66                   	data16
  10240a:	8e 1d fc 24 12 00    	mov    0x1224fc,%ds
  102410:	66                   	data16
  102411:	8e 05 00 25 12 00    	mov    0x122500,%es
  102417:	66                   	data16
  102418:	8e 25 04 25 12 00    	mov    0x122504,%fs
  10241e:	66                   	data16
  10241f:	8e 2d 08 25 12 00    	mov    0x122508,%gs
  102425:	a1 f0 24 12 00       	mov    0x1224f0,%eax
  10242a:	50                   	push   %eax
  10242b:	a1 f4 24 12 00       	mov    0x1224f4,%eax
  102430:	50                   	push   %eax
  102431:	a1 ec 24 12 00       	mov    0x1224ec,%eax
  102436:	50                   	push   %eax
  102437:	a1 cc 24 12 00       	mov    0x1224cc,%eax
  10243c:	cf                   	iret   
  10243d:	8d 76 00             	lea    0x0(%esi),%esi

00102440 <gdb_i386vector>:
  102440:	ff ff ff ff                                         ....

00102444 <mem_fault>:
  102444:	58                   	pop    %eax
  102445:	a3 a4 26 12 00       	mov    %eax,0x1226a4
  10244a:	58                   	pop    %eax
  10244b:	a1 80 59 10 00       	mov    0x105980,%eax
  102450:	59                   	pop    %ecx
  102451:	5a                   	pop    %edx
  102452:	c9                   	leave  
  102453:	52                   	push   %edx
  102454:	51                   	push   %ecx
  102455:	50                   	push   %eax
  102456:	b8 00 00 00 00       	mov    $0x0,%eax
  10245b:	a3 80 59 10 00       	mov    %eax,0x105980
  102460:	cf                   	iret   

00102461 <_catchException3>:
  102461:	a3 cc 24 12 00       	mov    %eax,0x1224cc
  102466:	89 0d d0 24 12 00    	mov    %ecx,0x1224d0
  10246c:	89 15 d4 24 12 00    	mov    %edx,0x1224d4
  102472:	89 1d d8 24 12 00    	mov    %ebx,0x1224d8
  102478:	89 2d e0 24 12 00    	mov    %ebp,0x1224e0
  10247e:	89 35 e4 24 12 00    	mov    %esi,0x1224e4
  102484:	89 3d e8 24 12 00    	mov    %edi,0x1224e8
  10248a:	66 b8 00 00          	mov    $0x0,%ax
  10248e:	66                   	data16
  10248f:	8c 1d fc 24 12 00    	mov    %ds,0x1224fc
  102495:	66 a3 fe 24 12 00    	mov    %ax,0x1224fe
  10249b:	66                   	data16
  10249c:	8c 05 00 25 12 00    	mov    %es,0x122500
  1024a2:	66 a3 02 25 12 00    	mov    %ax,0x122502
  1024a8:	66                   	data16
  1024a9:	8c 25 04 25 12 00    	mov    %fs,0x122504
  1024af:	66 a3 06 25 12 00    	mov    %ax,0x122506
  1024b5:	66                   	data16
  1024b6:	8c 2d 08 25 12 00    	mov    %gs,0x122508
  1024bc:	66 a3 0a 25 12 00    	mov    %ax,0x12250a
  1024c2:	5b                   	pop    %ebx
  1024c3:	89 1d ec 24 12 00    	mov    %ebx,0x1224ec
  1024c9:	5b                   	pop    %ebx
  1024ca:	89 1d f4 24 12 00    	mov    %ebx,0x1224f4
  1024d0:	66 a3 f6 24 12 00    	mov    %ax,0x1224f6
  1024d6:	5b                   	pop    %ebx
  1024d7:	89 1d f0 24 12 00    	mov    %ebx,0x1224f0
  1024dd:	66                   	data16
  1024de:	8c 15 f8 24 12 00    	mov    %ss,0x1224f8
  1024e4:	66 a3 fa 24 12 00    	mov    %ax,0x1224fa
  1024ea:	89 25 dc 24 12 00    	mov    %esp,0x1224dc
  1024f0:	6a 03                	push   $0x3
  1024f2:	e8 85 08 00 00       	call   102d7c <_remcomHandler>

001024f7 <_catchException1>:
  1024f7:	a3 cc 24 12 00       	mov    %eax,0x1224cc
  1024fc:	89 0d d0 24 12 00    	mov    %ecx,0x1224d0
  102502:	89 15 d4 24 12 00    	mov    %edx,0x1224d4
  102508:	89 1d d8 24 12 00    	mov    %ebx,0x1224d8
  10250e:	89 2d e0 24 12 00    	mov    %ebp,0x1224e0
  102514:	89 35 e4 24 12 00    	mov    %esi,0x1224e4
  10251a:	89 3d e8 24 12 00    	mov    %edi,0x1224e8
  102520:	66 b8 00 00          	mov    $0x0,%ax
  102524:	66                   	data16
  102525:	8c 1d fc 24 12 00    	mov    %ds,0x1224fc
  10252b:	66 a3 fe 24 12 00    	mov    %ax,0x1224fe
  102531:	66                   	data16
  102532:	8c 05 00 25 12 00    	mov    %es,0x122500
  102538:	66 a3 02 25 12 00    	mov    %ax,0x122502
  10253e:	66                   	data16
  10253f:	8c 25 04 25 12 00    	mov    %fs,0x122504
  102545:	66 a3 06 25 12 00    	mov    %ax,0x122506
  10254b:	66                   	data16
  10254c:	8c 2d 08 25 12 00    	mov    %gs,0x122508
  102552:	66 a3 0a 25 12 00    	mov    %ax,0x12250a
  102558:	5b                   	pop    %ebx
  102559:	89 1d ec 24 12 00    	mov    %ebx,0x1224ec
  10255f:	5b                   	pop    %ebx
  102560:	89 1d f4 24 12 00    	mov    %ebx,0x1224f4
  102566:	66 a3 f6 24 12 00    	mov    %ax,0x1224f6
  10256c:	5b                   	pop    %ebx
  10256d:	89 1d f0 24 12 00    	mov    %ebx,0x1224f0
  102573:	66                   	data16
  102574:	8c 15 f8 24 12 00    	mov    %ss,0x1224f8
  10257a:	66 a3 fa 24 12 00    	mov    %ax,0x1224fa
  102580:	89 25 dc 24 12 00    	mov    %esp,0x1224dc
  102586:	6a 01                	push   $0x1
  102588:	e8 ef 07 00 00       	call   102d7c <_remcomHandler>

0010258d <_catchException0>:
  10258d:	a3 cc 24 12 00       	mov    %eax,0x1224cc
  102592:	89 0d d0 24 12 00    	mov    %ecx,0x1224d0
  102598:	89 15 d4 24 12 00    	mov    %edx,0x1224d4
  10259e:	89 1d d8 24 12 00    	mov    %ebx,0x1224d8
  1025a4:	89 2d e0 24 12 00    	mov    %ebp,0x1224e0
  1025aa:	89 35 e4 24 12 00    	mov    %esi,0x1224e4
  1025b0:	89 3d e8 24 12 00    	mov    %edi,0x1224e8
  1025b6:	66 b8 00 00          	mov    $0x0,%ax
  1025ba:	66                   	data16
  1025bb:	8c 1d fc 24 12 00    	mov    %ds,0x1224fc
  1025c1:	66 a3 fe 24 12 00    	mov    %ax,0x1224fe
  1025c7:	66                   	data16
  1025c8:	8c 05 00 25 12 00    	mov    %es,0x122500
  1025ce:	66 a3 02 25 12 00    	mov    %ax,0x122502
  1025d4:	66                   	data16
  1025d5:	8c 25 04 25 12 00    	mov    %fs,0x122504
  1025db:	66 a3 06 25 12 00    	mov    %ax,0x122506
  1025e1:	66                   	data16
  1025e2:	8c 2d 08 25 12 00    	mov    %gs,0x122508
  1025e8:	66 a3 0a 25 12 00    	mov    %ax,0x12250a
  1025ee:	5b                   	pop    %ebx
  1025ef:	89 1d ec 24 12 00    	mov    %ebx,0x1224ec
  1025f5:	5b                   	pop    %ebx
  1025f6:	89 1d f4 24 12 00    	mov    %ebx,0x1224f4
  1025fc:	66 a3 f6 24 12 00    	mov    %ax,0x1224f6
  102602:	5b                   	pop    %ebx
  102603:	89 1d f0 24 12 00    	mov    %ebx,0x1224f0
  102609:	66                   	data16
  10260a:	8c 15 f8 24 12 00    	mov    %ss,0x1224f8
  102610:	66 a3 fa 24 12 00    	mov    %ax,0x1224fa
  102616:	89 25 dc 24 12 00    	mov    %esp,0x1224dc
  10261c:	6a 00                	push   $0x0
  10261e:	e8 59 07 00 00       	call   102d7c <_remcomHandler>

00102623 <_catchException4>:
  102623:	a3 cc 24 12 00       	mov    %eax,0x1224cc
  102628:	89 0d d0 24 12 00    	mov    %ecx,0x1224d0
  10262e:	89 15 d4 24 12 00    	mov    %edx,0x1224d4
  102634:	89 1d d8 24 12 00    	mov    %ebx,0x1224d8
  10263a:	89 2d e0 24 12 00    	mov    %ebp,0x1224e0
  102640:	89 35 e4 24 12 00    	mov    %esi,0x1224e4
  102646:	89 3d e8 24 12 00    	mov    %edi,0x1224e8
  10264c:	66 b8 00 00          	mov    $0x0,%ax
  102650:	66                   	data16
  102651:	8c 1d fc 24 12 00    	mov    %ds,0x1224fc
  102657:	66 a3 fe 24 12 00    	mov    %ax,0x1224fe
  10265d:	66                   	data16
  10265e:	8c 05 00 25 12 00    	mov    %es,0x122500
  102664:	66 a3 02 25 12 00    	mov    %ax,0x122502
  10266a:	66                   	data16
  10266b:	8c 25 04 25 12 00    	mov    %fs,0x122504
  102671:	66 a3 06 25 12 00    	mov    %ax,0x122506
  102677:	66                   	data16
  102678:	8c 2d 08 25 12 00    	mov    %gs,0x122508
  10267e:	66 a3 0a 25 12 00    	mov    %ax,0x12250a
  102684:	5b                   	pop    %ebx
  102685:	89 1d ec 24 12 00    	mov    %ebx,0x1224ec
  10268b:	5b                   	pop    %ebx
  10268c:	89 1d f4 24 12 00    	mov    %ebx,0x1224f4
  102692:	66 a3 f6 24 12 00    	mov    %ax,0x1224f6
  102698:	5b                   	pop    %ebx
  102699:	89 1d f0 24 12 00    	mov    %ebx,0x1224f0
  10269f:	66                   	data16
  1026a0:	8c 15 f8 24 12 00    	mov    %ss,0x1224f8
  1026a6:	66 a3 fa 24 12 00    	mov    %ax,0x1224fa
  1026ac:	89 25 dc 24 12 00    	mov    %esp,0x1224dc
  1026b2:	6a 04                	push   $0x4
  1026b4:	e8 c3 06 00 00       	call   102d7c <_remcomHandler>

001026b9 <_catchException5>:
  1026b9:	a3 cc 24 12 00       	mov    %eax,0x1224cc
  1026be:	89 0d d0 24 12 00    	mov    %ecx,0x1224d0
  1026c4:	89 15 d4 24 12 00    	mov    %edx,0x1224d4
  1026ca:	89 1d d8 24 12 00    	mov    %ebx,0x1224d8
  1026d0:	89 2d e0 24 12 00    	mov    %ebp,0x1224e0
  1026d6:	89 35 e4 24 12 00    	mov    %esi,0x1224e4
  1026dc:	89 3d e8 24 12 00    	mov    %edi,0x1224e8
  1026e2:	66 b8 00 00          	mov    $0x0,%ax
  1026e6:	66                   	data16
  1026e7:	8c 1d fc 24 12 00    	mov    %ds,0x1224fc
  1026ed:	66 a3 fe 24 12 00    	mov    %ax,0x1224fe
  1026f3:	66                   	data16
  1026f4:	8c 05 00 25 12 00    	mov    %es,0x122500
  1026fa:	66 a3 02 25 12 00    	mov    %ax,0x122502
  102700:	66                   	data16
  102701:	8c 25 04 25 12 00    	mov    %fs,0x122504
  102707:	66 a3 06 25 12 00    	mov    %ax,0x122506
  10270d:	66                   	data16
  10270e:	8c 2d 08 25 12 00    	mov    %gs,0x122508
  102714:	66 a3 0a 25 12 00    	mov    %ax,0x12250a
  10271a:	5b                   	pop    %ebx
  10271b:	89 1d ec 24 12 00    	mov    %ebx,0x1224ec
  102721:	5b                   	pop    %ebx
  102722:	89 1d f4 24 12 00    	mov    %ebx,0x1224f4
  102728:	66 a3 f6 24 12 00    	mov    %ax,0x1224f6
  10272e:	5b                   	pop    %ebx
  10272f:	89 1d f0 24 12 00    	mov    %ebx,0x1224f0
  102735:	66                   	data16
  102736:	8c 15 f8 24 12 00    	mov    %ss,0x1224f8
  10273c:	66 a3 fa 24 12 00    	mov    %ax,0x1224fa
  102742:	89 25 dc 24 12 00    	mov    %esp,0x1224dc
  102748:	6a 05                	push   $0x5
  10274a:	e8 2d 06 00 00       	call   102d7c <_remcomHandler>

0010274f <_catchException6>:
  10274f:	a3 cc 24 12 00       	mov    %eax,0x1224cc
  102754:	89 0d d0 24 12 00    	mov    %ecx,0x1224d0
  10275a:	89 15 d4 24 12 00    	mov    %edx,0x1224d4
  102760:	89 1d d8 24 12 00    	mov    %ebx,0x1224d8
  102766:	89 2d e0 24 12 00    	mov    %ebp,0x1224e0
  10276c:	89 35 e4 24 12 00    	mov    %esi,0x1224e4
  102772:	89 3d e8 24 12 00    	mov    %edi,0x1224e8
  102778:	66 b8 00 00          	mov    $0x0,%ax
  10277c:	66                   	data16
  10277d:	8c 1d fc 24 12 00    	mov    %ds,0x1224fc
  102783:	66 a3 fe 24 12 00    	mov    %ax,0x1224fe
  102789:	66                   	data16
  10278a:	8c 05 00 25 12 00    	mov    %es,0x122500
  102790:	66 a3 02 25 12 00    	mov    %ax,0x122502
  102796:	66                   	data16
  102797:	8c 25 04 25 12 00    	mov    %fs,0x122504
  10279d:	66 a3 06 25 12 00    	mov    %ax,0x122506
  1027a3:	66                   	data16
  1027a4:	8c 2d 08 25 12 00    	mov    %gs,0x122508
  1027aa:	66 a3 0a 25 12 00    	mov    %ax,0x12250a
  1027b0:	5b                   	pop    %ebx
  1027b1:	89 1d ec 24 12 00    	mov    %ebx,0x1224ec
  1027b7:	5b                   	pop    %ebx
  1027b8:	89 1d f4 24 12 00    	mov    %ebx,0x1224f4
  1027be:	66 a3 f6 24 12 00    	mov    %ax,0x1224f6
  1027c4:	5b                   	pop    %ebx
  1027c5:	89 1d f0 24 12 00    	mov    %ebx,0x1224f0
  1027cb:	66                   	data16
  1027cc:	8c 15 f8 24 12 00    	mov    %ss,0x1224f8
  1027d2:	66 a3 fa 24 12 00    	mov    %ax,0x1224fa
  1027d8:	89 25 dc 24 12 00    	mov    %esp,0x1224dc
  1027de:	6a 06                	push   $0x6
  1027e0:	e8 97 05 00 00       	call   102d7c <_remcomHandler>

001027e5 <_catchException7>:
  1027e5:	a3 cc 24 12 00       	mov    %eax,0x1224cc
  1027ea:	89 0d d0 24 12 00    	mov    %ecx,0x1224d0
  1027f0:	89 15 d4 24 12 00    	mov    %edx,0x1224d4
  1027f6:	89 1d d8 24 12 00    	mov    %ebx,0x1224d8
  1027fc:	89 2d e0 24 12 00    	mov    %ebp,0x1224e0
  102802:	89 35 e4 24 12 00    	mov    %esi,0x1224e4
  102808:	89 3d e8 24 12 00    	mov    %edi,0x1224e8
  10280e:	66 b8 00 00          	mov    $0x0,%ax
  102812:	66                   	data16
  102813:	8c 1d fc 24 12 00    	mov    %ds,0x1224fc
  102819:	66 a3 fe 24 12 00    	mov    %ax,0x1224fe
  10281f:	66                   	data16
  102820:	8c 05 00 25 12 00    	mov    %es,0x122500
  102826:	66 a3 02 25 12 00    	mov    %ax,0x122502
  10282c:	66                   	data16
  10282d:	8c 25 04 25 12 00    	mov    %fs,0x122504
  102833:	66 a3 06 25 12 00    	mov    %ax,0x122506
  102839:	66                   	data16
  10283a:	8c 2d 08 25 12 00    	mov    %gs,0x122508
  102840:	66 a3 0a 25 12 00    	mov    %ax,0x12250a
  102846:	5b                   	pop    %ebx
  102847:	89 1d ec 24 12 00    	mov    %ebx,0x1224ec
  10284d:	5b                   	pop    %ebx
  10284e:	89 1d f4 24 12 00    	mov    %ebx,0x1224f4
  102854:	66 a3 f6 24 12 00    	mov    %ax,0x1224f6
  10285a:	5b                   	pop    %ebx
  10285b:	89 1d f0 24 12 00    	mov    %ebx,0x1224f0
  102861:	66                   	data16
  102862:	8c 15 f8 24 12 00    	mov    %ss,0x1224f8
  102868:	66 a3 fa 24 12 00    	mov    %ax,0x1224fa
  10286e:	89 25 dc 24 12 00    	mov    %esp,0x1224dc
  102874:	6a 07                	push   $0x7
  102876:	e8 01 05 00 00       	call   102d7c <_remcomHandler>

0010287b <_catchException8>:
  10287b:	a3 cc 24 12 00       	mov    %eax,0x1224cc
  102880:	89 0d d0 24 12 00    	mov    %ecx,0x1224d0
  102886:	89 15 d4 24 12 00    	mov    %edx,0x1224d4
  10288c:	89 1d d8 24 12 00    	mov    %ebx,0x1224d8
  102892:	89 2d e0 24 12 00    	mov    %ebp,0x1224e0
  102898:	89 35 e4 24 12 00    	mov    %esi,0x1224e4
  10289e:	89 3d e8 24 12 00    	mov    %edi,0x1224e8
  1028a4:	66 b8 00 00          	mov    $0x0,%ax
  1028a8:	66                   	data16
  1028a9:	8c 1d fc 24 12 00    	mov    %ds,0x1224fc
  1028af:	66 a3 fe 24 12 00    	mov    %ax,0x1224fe
  1028b5:	66                   	data16
  1028b6:	8c 05 00 25 12 00    	mov    %es,0x122500
  1028bc:	66 a3 02 25 12 00    	mov    %ax,0x122502
  1028c2:	66                   	data16
  1028c3:	8c 25 04 25 12 00    	mov    %fs,0x122504
  1028c9:	66 a3 06 25 12 00    	mov    %ax,0x122506
  1028cf:	66                   	data16
  1028d0:	8c 2d 08 25 12 00    	mov    %gs,0x122508
  1028d6:	66 a3 0a 25 12 00    	mov    %ax,0x12250a
  1028dc:	5b                   	pop    %ebx
  1028dd:	89 1d a4 26 12 00    	mov    %ebx,0x1226a4
  1028e3:	5b                   	pop    %ebx
  1028e4:	89 1d ec 24 12 00    	mov    %ebx,0x1224ec
  1028ea:	5b                   	pop    %ebx
  1028eb:	89 1d f4 24 12 00    	mov    %ebx,0x1224f4
  1028f1:	66 a3 f6 24 12 00    	mov    %ax,0x1224f6
  1028f7:	5b                   	pop    %ebx
  1028f8:	89 1d f0 24 12 00    	mov    %ebx,0x1224f0
  1028fe:	66                   	data16
  1028ff:	8c 15 f8 24 12 00    	mov    %ss,0x1224f8
  102905:	66 a3 fa 24 12 00    	mov    %ax,0x1224fa
  10290b:	89 25 dc 24 12 00    	mov    %esp,0x1224dc
  102911:	6a 08                	push   $0x8
  102913:	e8 64 04 00 00       	call   102d7c <_remcomHandler>

00102918 <_catchException9>:
  102918:	a3 cc 24 12 00       	mov    %eax,0x1224cc
  10291d:	89 0d d0 24 12 00    	mov    %ecx,0x1224d0
  102923:	89 15 d4 24 12 00    	mov    %edx,0x1224d4
  102929:	89 1d d8 24 12 00    	mov    %ebx,0x1224d8
  10292f:	89 2d e0 24 12 00    	mov    %ebp,0x1224e0
  102935:	89 35 e4 24 12 00    	mov    %esi,0x1224e4
  10293b:	89 3d e8 24 12 00    	mov    %edi,0x1224e8
  102941:	66 b8 00 00          	mov    $0x0,%ax
  102945:	66                   	data16
  102946:	8c 1d fc 24 12 00    	mov    %ds,0x1224fc
  10294c:	66 a3 fe 24 12 00    	mov    %ax,0x1224fe
  102952:	66                   	data16
  102953:	8c 05 00 25 12 00    	mov    %es,0x122500
  102959:	66 a3 02 25 12 00    	mov    %ax,0x122502
  10295f:	66                   	data16
  102960:	8c 25 04 25 12 00    	mov    %fs,0x122504
  102966:	66 a3 06 25 12 00    	mov    %ax,0x122506
  10296c:	66                   	data16
  10296d:	8c 2d 08 25 12 00    	mov    %gs,0x122508
  102973:	66 a3 0a 25 12 00    	mov    %ax,0x12250a
  102979:	5b                   	pop    %ebx
  10297a:	89 1d ec 24 12 00    	mov    %ebx,0x1224ec
  102980:	5b                   	pop    %ebx
  102981:	89 1d f4 24 12 00    	mov    %ebx,0x1224f4
  102987:	66 a3 f6 24 12 00    	mov    %ax,0x1224f6
  10298d:	5b                   	pop    %ebx
  10298e:	89 1d f0 24 12 00    	mov    %ebx,0x1224f0
  102994:	66                   	data16
  102995:	8c 15 f8 24 12 00    	mov    %ss,0x1224f8
  10299b:	66 a3 fa 24 12 00    	mov    %ax,0x1224fa
  1029a1:	89 25 dc 24 12 00    	mov    %esp,0x1224dc
  1029a7:	6a 09                	push   $0x9
  1029a9:	e8 ce 03 00 00       	call   102d7c <_remcomHandler>

001029ae <_catchException10>:
  1029ae:	a3 cc 24 12 00       	mov    %eax,0x1224cc
  1029b3:	89 0d d0 24 12 00    	mov    %ecx,0x1224d0
  1029b9:	89 15 d4 24 12 00    	mov    %edx,0x1224d4
  1029bf:	89 1d d8 24 12 00    	mov    %ebx,0x1224d8
  1029c5:	89 2d e0 24 12 00    	mov    %ebp,0x1224e0
  1029cb:	89 35 e4 24 12 00    	mov    %esi,0x1224e4
  1029d1:	89 3d e8 24 12 00    	mov    %edi,0x1224e8
  1029d7:	66 b8 00 00          	mov    $0x0,%ax
  1029db:	66                   	data16
  1029dc:	8c 1d fc 24 12 00    	mov    %ds,0x1224fc
  1029e2:	66 a3 fe 24 12 00    	mov    %ax,0x1224fe
  1029e8:	66                   	data16
  1029e9:	8c 05 00 25 12 00    	mov    %es,0x122500
  1029ef:	66 a3 02 25 12 00    	mov    %ax,0x122502
  1029f5:	66                   	data16
  1029f6:	8c 25 04 25 12 00    	mov    %fs,0x122504
  1029fc:	66 a3 06 25 12 00    	mov    %ax,0x122506
  102a02:	66                   	data16
  102a03:	8c 2d 08 25 12 00    	mov    %gs,0x122508
  102a09:	66 a3 0a 25 12 00    	mov    %ax,0x12250a
  102a0f:	5b                   	pop    %ebx
  102a10:	89 1d a4 26 12 00    	mov    %ebx,0x1226a4
  102a16:	5b                   	pop    %ebx
  102a17:	89 1d ec 24 12 00    	mov    %ebx,0x1224ec
  102a1d:	5b                   	pop    %ebx
  102a1e:	89 1d f4 24 12 00    	mov    %ebx,0x1224f4
  102a24:	66 a3 f6 24 12 00    	mov    %ax,0x1224f6
  102a2a:	5b                   	pop    %ebx
  102a2b:	89 1d f0 24 12 00    	mov    %ebx,0x1224f0
  102a31:	66                   	data16
  102a32:	8c 15 f8 24 12 00    	mov    %ss,0x1224f8
  102a38:	66 a3 fa 24 12 00    	mov    %ax,0x1224fa
  102a3e:	89 25 dc 24 12 00    	mov    %esp,0x1224dc
  102a44:	6a 0a                	push   $0xa
  102a46:	e8 31 03 00 00       	call   102d7c <_remcomHandler>

00102a4b <_catchException12>:
  102a4b:	a3 cc 24 12 00       	mov    %eax,0x1224cc
  102a50:	89 0d d0 24 12 00    	mov    %ecx,0x1224d0
  102a56:	89 15 d4 24 12 00    	mov    %edx,0x1224d4
  102a5c:	89 1d d8 24 12 00    	mov    %ebx,0x1224d8
  102a62:	89 2d e0 24 12 00    	mov    %ebp,0x1224e0
  102a68:	89 35 e4 24 12 00    	mov    %esi,0x1224e4
  102a6e:	89 3d e8 24 12 00    	mov    %edi,0x1224e8
  102a74:	66 b8 00 00          	mov    $0x0,%ax
  102a78:	66                   	data16
  102a79:	8c 1d fc 24 12 00    	mov    %ds,0x1224fc
  102a7f:	66 a3 fe 24 12 00    	mov    %ax,0x1224fe
  102a85:	66                   	data16
  102a86:	8c 05 00 25 12 00    	mov    %es,0x122500
  102a8c:	66 a3 02 25 12 00    	mov    %ax,0x122502
  102a92:	66                   	data16
  102a93:	8c 25 04 25 12 00    	mov    %fs,0x122504
  102a99:	66 a3 06 25 12 00    	mov    %ax,0x122506
  102a9f:	66                   	data16
  102aa0:	8c 2d 08 25 12 00    	mov    %gs,0x122508
  102aa6:	66 a3 0a 25 12 00    	mov    %ax,0x12250a
  102aac:	5b                   	pop    %ebx
  102aad:	89 1d a4 26 12 00    	mov    %ebx,0x1226a4
  102ab3:	5b                   	pop    %ebx
  102ab4:	89 1d ec 24 12 00    	mov    %ebx,0x1224ec
  102aba:	5b                   	pop    %ebx
  102abb:	89 1d f4 24 12 00    	mov    %ebx,0x1224f4
  102ac1:	66 a3 f6 24 12 00    	mov    %ax,0x1224f6
  102ac7:	5b                   	pop    %ebx
  102ac8:	89 1d f0 24 12 00    	mov    %ebx,0x1224f0
  102ace:	66                   	data16
  102acf:	8c 15 f8 24 12 00    	mov    %ss,0x1224f8
  102ad5:	66 a3 fa 24 12 00    	mov    %ax,0x1224fa
  102adb:	89 25 dc 24 12 00    	mov    %esp,0x1224dc
  102ae1:	6a 0c                	push   $0xc
  102ae3:	e8 94 02 00 00       	call   102d7c <_remcomHandler>

00102ae8 <_catchException16>:
  102ae8:	a3 cc 24 12 00       	mov    %eax,0x1224cc
  102aed:	89 0d d0 24 12 00    	mov    %ecx,0x1224d0
  102af3:	89 15 d4 24 12 00    	mov    %edx,0x1224d4
  102af9:	89 1d d8 24 12 00    	mov    %ebx,0x1224d8
  102aff:	89 2d e0 24 12 00    	mov    %ebp,0x1224e0
  102b05:	89 35 e4 24 12 00    	mov    %esi,0x1224e4
  102b0b:	89 3d e8 24 12 00    	mov    %edi,0x1224e8
  102b11:	66 b8 00 00          	mov    $0x0,%ax
  102b15:	66                   	data16
  102b16:	8c 1d fc 24 12 00    	mov    %ds,0x1224fc
  102b1c:	66 a3 fe 24 12 00    	mov    %ax,0x1224fe
  102b22:	66                   	data16
  102b23:	8c 05 00 25 12 00    	mov    %es,0x122500
  102b29:	66 a3 02 25 12 00    	mov    %ax,0x122502
  102b2f:	66                   	data16
  102b30:	8c 25 04 25 12 00    	mov    %fs,0x122504
  102b36:	66 a3 06 25 12 00    	mov    %ax,0x122506
  102b3c:	66                   	data16
  102b3d:	8c 2d 08 25 12 00    	mov    %gs,0x122508
  102b43:	66 a3 0a 25 12 00    	mov    %ax,0x12250a
  102b49:	5b                   	pop    %ebx
  102b4a:	89 1d ec 24 12 00    	mov    %ebx,0x1224ec
  102b50:	5b                   	pop    %ebx
  102b51:	89 1d f4 24 12 00    	mov    %ebx,0x1224f4
  102b57:	66 a3 f6 24 12 00    	mov    %ax,0x1224f6
  102b5d:	5b                   	pop    %ebx
  102b5e:	89 1d f0 24 12 00    	mov    %ebx,0x1224f0
  102b64:	66                   	data16
  102b65:	8c 15 f8 24 12 00    	mov    %ss,0x1224f8
  102b6b:	66 a3 fa 24 12 00    	mov    %ax,0x1224fa
  102b71:	89 25 dc 24 12 00    	mov    %esp,0x1224dc
  102b77:	6a 10                	push   $0x10
  102b79:	e8 fe 01 00 00       	call   102d7c <_remcomHandler>

00102b7e <_catchException13>:
  102b7e:	83 3d 80 59 10 00 00 	cmpl   $0x0,0x105980
  102b85:	0f 85 b9 f8 ff ff    	jne    102444 <mem_fault>
  102b8b:	a3 cc 24 12 00       	mov    %eax,0x1224cc
  102b90:	89 0d d0 24 12 00    	mov    %ecx,0x1224d0
  102b96:	89 15 d4 24 12 00    	mov    %edx,0x1224d4
  102b9c:	89 1d d8 24 12 00    	mov    %ebx,0x1224d8
  102ba2:	89 2d e0 24 12 00    	mov    %ebp,0x1224e0
  102ba8:	89 35 e4 24 12 00    	mov    %esi,0x1224e4
  102bae:	89 3d e8 24 12 00    	mov    %edi,0x1224e8
  102bb4:	66 b8 00 00          	mov    $0x0,%ax
  102bb8:	66                   	data16
  102bb9:	8c 1d fc 24 12 00    	mov    %ds,0x1224fc
  102bbf:	66 a3 fe 24 12 00    	mov    %ax,0x1224fe
  102bc5:	66                   	data16
  102bc6:	8c 05 00 25 12 00    	mov    %es,0x122500
  102bcc:	66 a3 02 25 12 00    	mov    %ax,0x122502
  102bd2:	66                   	data16
  102bd3:	8c 25 04 25 12 00    	mov    %fs,0x122504
  102bd9:	66 a3 06 25 12 00    	mov    %ax,0x122506
  102bdf:	66                   	data16
  102be0:	8c 2d 08 25 12 00    	mov    %gs,0x122508
  102be6:	66 a3 0a 25 12 00    	mov    %ax,0x12250a
  102bec:	5b                   	pop    %ebx
  102bed:	89 1d a4 26 12 00    	mov    %ebx,0x1226a4
  102bf3:	5b                   	pop    %ebx
  102bf4:	89 1d ec 24 12 00    	mov    %ebx,0x1224ec
  102bfa:	5b                   	pop    %ebx
  102bfb:	89 1d f4 24 12 00    	mov    %ebx,0x1224f4
  102c01:	66 a3 f6 24 12 00    	mov    %ax,0x1224f6
  102c07:	5b                   	pop    %ebx
  102c08:	89 1d f0 24 12 00    	mov    %ebx,0x1224f0
  102c0e:	66                   	data16
  102c0f:	8c 15 f8 24 12 00    	mov    %ss,0x1224f8
  102c15:	66 a3 fa 24 12 00    	mov    %ax,0x1224fa
  102c1b:	89 25 dc 24 12 00    	mov    %esp,0x1224dc
  102c21:	6a 0d                	push   $0xd
  102c23:	e8 54 01 00 00       	call   102d7c <_remcomHandler>

00102c28 <_catchException11>:
  102c28:	83 3d 80 59 10 00 00 	cmpl   $0x0,0x105980
  102c2f:	0f 85 0f f8 ff ff    	jne    102444 <mem_fault>
  102c35:	a3 cc 24 12 00       	mov    %eax,0x1224cc
  102c3a:	89 0d d0 24 12 00    	mov    %ecx,0x1224d0
  102c40:	89 15 d4 24 12 00    	mov    %edx,0x1224d4
  102c46:	89 1d d8 24 12 00    	mov    %ebx,0x1224d8
  102c4c:	89 2d e0 24 12 00    	mov    %ebp,0x1224e0
  102c52:	89 35 e4 24 12 00    	mov    %esi,0x1224e4
  102c58:	89 3d e8 24 12 00    	mov    %edi,0x1224e8
  102c5e:	66 b8 00 00          	mov    $0x0,%ax
  102c62:	66                   	data16
  102c63:	8c 1d fc 24 12 00    	mov    %ds,0x1224fc
  102c69:	66 a3 fe 24 12 00    	mov    %ax,0x1224fe
  102c6f:	66                   	data16
  102c70:	8c 05 00 25 12 00    	mov    %es,0x122500
  102c76:	66 a3 02 25 12 00    	mov    %ax,0x122502
  102c7c:	66                   	data16
  102c7d:	8c 25 04 25 12 00    	mov    %fs,0x122504
  102c83:	66 a3 06 25 12 00    	mov    %ax,0x122506
  102c89:	66                   	data16
  102c8a:	8c 2d 08 25 12 00    	mov    %gs,0x122508
  102c90:	66 a3 0a 25 12 00    	mov    %ax,0x12250a
  102c96:	5b                   	pop    %ebx
  102c97:	89 1d a4 26 12 00    	mov    %ebx,0x1226a4
  102c9d:	5b                   	pop    %ebx
  102c9e:	89 1d ec 24 12 00    	mov    %ebx,0x1224ec
  102ca4:	5b                   	pop    %ebx
  102ca5:	89 1d f4 24 12 00    	mov    %ebx,0x1224f4
  102cab:	66 a3 f6 24 12 00    	mov    %ax,0x1224f6
  102cb1:	5b                   	pop    %ebx
  102cb2:	89 1d f0 24 12 00    	mov    %ebx,0x1224f0
  102cb8:	66                   	data16
  102cb9:	8c 15 f8 24 12 00    	mov    %ss,0x1224f8
  102cbf:	66 a3 fa 24 12 00    	mov    %ax,0x1224fa
  102cc5:	89 25 dc 24 12 00    	mov    %esp,0x1224dc
  102ccb:	6a 0b                	push   $0xb
  102ccd:	e8 aa 00 00 00       	call   102d7c <_remcomHandler>

00102cd2 <_catchException14>:
  102cd2:	83 3d 80 59 10 00 00 	cmpl   $0x0,0x105980
  102cd9:	0f 85 65 f7 ff ff    	jne    102444 <mem_fault>
  102cdf:	a3 cc 24 12 00       	mov    %eax,0x1224cc
  102ce4:	89 0d d0 24 12 00    	mov    %ecx,0x1224d0
  102cea:	89 15 d4 24 12 00    	mov    %edx,0x1224d4
  102cf0:	89 1d d8 24 12 00    	mov    %ebx,0x1224d8
  102cf6:	89 2d e0 24 12 00    	mov    %ebp,0x1224e0
  102cfc:	89 35 e4 24 12 00    	mov    %esi,0x1224e4
  102d02:	89 3d e8 24 12 00    	mov    %edi,0x1224e8
  102d08:	66 b8 00 00          	mov    $0x0,%ax
  102d0c:	66                   	data16
  102d0d:	8c 1d fc 24 12 00    	mov    %ds,0x1224fc
  102d13:	66 a3 fe 24 12 00    	mov    %ax,0x1224fe
  102d19:	66                   	data16
  102d1a:	8c 05 00 25 12 00    	mov    %es,0x122500
  102d20:	66 a3 02 25 12 00    	mov    %ax,0x122502
  102d26:	66                   	data16
  102d27:	8c 25 04 25 12 00    	mov    %fs,0x122504
  102d2d:	66 a3 06 25 12 00    	mov    %ax,0x122506
  102d33:	66                   	data16
  102d34:	8c 2d 08 25 12 00    	mov    %gs,0x122508
  102d3a:	66 a3 0a 25 12 00    	mov    %ax,0x12250a
  102d40:	5b                   	pop    %ebx
  102d41:	89 1d a4 26 12 00    	mov    %ebx,0x1226a4
  102d47:	5b                   	pop    %ebx
  102d48:	89 1d ec 24 12 00    	mov    %ebx,0x1224ec
  102d4e:	5b                   	pop    %ebx
  102d4f:	89 1d f4 24 12 00    	mov    %ebx,0x1224f4
  102d55:	66 a3 f6 24 12 00    	mov    %ax,0x1224f6
  102d5b:	5b                   	pop    %ebx
  102d5c:	89 1d f0 24 12 00    	mov    %ebx,0x1224f0
  102d62:	66                   	data16
  102d63:	8c 15 f8 24 12 00    	mov    %ss,0x1224f8
  102d69:	66 a3 fa 24 12 00    	mov    %ax,0x1224fa
  102d6f:	89 25 dc 24 12 00    	mov    %esp,0x1224dc
  102d75:	6a 0e                	push   $0xe
  102d77:	e8 00 00 00 00       	call   102d7c <_remcomHandler>

00102d7c <_remcomHandler>:
  102d7c:	58                   	pop    %eax
  102d7d:	58                   	pop    %eax
  102d7e:	8b 25 7c 59 10 00    	mov    0x10597c,%esp
  102d84:	50                   	push   %eax
  102d85:	e8 0a 04 00 00       	call   103194 <handle_exception>
  102d8a:	8d 36                	lea    (%esi),%esi

00102d8c <_returnFromException>:
  102d8c:	55                   	push   %ebp
  102d8d:	89 e5                	mov    %esp,%ebp
  102d8f:	e8 44 f6 ff ff       	call   1023d8 <_return_to_prog>
  102d94:	c9                   	leave  
  102d95:	c3                   	ret    
  102d96:	8d 36                	lea    (%esi),%esi

00102d98 <hex>:
  102d98:	55                   	push   %ebp
  102d99:	89 e5                	mov    %esp,%ebp
  102d9b:	8a 55 08             	mov    0x8(%ebp),%dl
  102d9e:	88 d0                	mov    %dl,%al
  102da0:	04 9f                	add    $0x9f,%al
  102da2:	3c 05                	cmp    $0x5,%al
  102da4:	77 0a                	ja     102db0 <hex+0x18>
  102da6:	0f be c2             	movsbl %dl,%eax
  102da9:	83 c0 a9             	add    $0xffffffa9,%eax
  102dac:	c9                   	leave  
  102dad:	c3                   	ret    
  102dae:	8d 36                	lea    (%esi),%esi
  102db0:	88 d0                	mov    %dl,%al
  102db2:	04 d0                	add    $0xd0,%al
  102db4:	3c 09                	cmp    $0x9,%al
  102db6:	77 08                	ja     102dc0 <hex+0x28>
  102db8:	0f be c2             	movsbl %dl,%eax
  102dbb:	83 c0 d0             	add    $0xffffffd0,%eax
  102dbe:	c9                   	leave  
  102dbf:	c3                   	ret    
  102dc0:	88 d0                	mov    %dl,%al
  102dc2:	04 bf                	add    $0xbf,%al
  102dc4:	3c 05                	cmp    $0x5,%al
  102dc6:	76 08                	jbe    102dd0 <hex+0x38>
  102dc8:	b8 ff ff ff ff       	mov    $0xffffffff,%eax
  102dcd:	c9                   	leave  
  102dce:	c3                   	ret    
  102dcf:	90                   	nop
  102dd0:	0f be c2             	movsbl %dl,%eax
  102dd3:	83 c0 c9             	add    $0xffffffc9,%eax
  102dd6:	c9                   	leave  
  102dd7:	c3                   	ret    

00102dd8 <getpacket>:
  102dd8:	55                   	push   %ebp
  102dd9:	89 e5                	mov    %esp,%ebp
  102ddb:	83 ec 08             	sub    $0x8,%esp
  102dde:	57                   	push   %edi
  102ddf:	56                   	push   %esi
  102de0:	53                   	push   %ebx
  102de1:	8b 75 08             	mov    0x8(%ebp),%esi
  102de4:	e8 03 25 00 00       	call   1052ec <getDebugChar>
  102de9:	24 7f                	and    $0x7f,%al
  102deb:	3c 24                	cmp    $0x24,%al
  102ded:	75 f5                	jne    102de4 <getpacket+0xc>
  102def:	c6 45 fc 00          	movb   $0x0,-0x4(%ebp)
  102df3:	c6 45 f8 ff          	movb   $0xff,-0x8(%ebp)
  102df7:	31 db                	xor    %ebx,%ebx
  102df9:	8d 76 00             	lea    0x0(%esi),%esi
  102dfc:	e8 eb 24 00 00       	call   1052ec <getDebugChar>
  102e01:	24 7f                	and    $0x7f,%al
  102e03:	3c 23                	cmp    $0x23,%al
  102e05:	74 0f                	je     102e16 <getpacket+0x3e>
  102e07:	00 45 fc             	add    %al,-0x4(%ebp)
  102e0a:	88 04 33             	mov    %al,(%ebx,%esi,1)
  102e0d:	43                   	inc    %ebx
  102e0e:	81 fb 8f 01 00 00    	cmp    $0x18f,%ebx
  102e14:	7e e6                	jle    102dfc <getpacket+0x24>
  102e16:	c6 04 33 00          	movb   $0x0,(%ebx,%esi,1)
  102e1a:	3c 23                	cmp    $0x23,%al
  102e1c:	0f 85 b6 00 00 00    	jne    102ed8 <getpacket+0x100>
  102e22:	e8 c5 24 00 00       	call   1052ec <getDebugChar>
  102e27:	83 e0 7f             	and    $0x7f,%eax
  102e2a:	50                   	push   %eax
  102e2b:	e8 68 ff ff ff       	call   102d98 <hex>
  102e30:	88 45 f8             	mov    %al,-0x8(%ebp)
  102e33:	c0 65 f8 04          	shlb   $0x4,-0x8(%ebp)
  102e37:	e8 b0 24 00 00       	call   1052ec <getDebugChar>
  102e3c:	83 e0 7f             	and    $0x7f,%eax
  102e3f:	50                   	push   %eax
  102e40:	e8 53 ff ff ff       	call   102d98 <hex>
  102e45:	00 45 f8             	add    %al,-0x8(%ebp)
  102e48:	83 c4 08             	add    $0x8,%esp
  102e4b:	83 3d 0c 25 12 00 00 	cmpl   $0x0,0x12250c
  102e52:	74 1f                	je     102e73 <getpacket+0x9b>
  102e54:	8a 4d fc             	mov    -0x4(%ebp),%cl
  102e57:	38 4d f8             	cmp    %cl,-0x8(%ebp)
  102e5a:	74 2c                	je     102e88 <getpacket+0xb0>
  102e5c:	56                   	push   %esi
  102e5d:	0f b6 45 f8          	movzbl -0x8(%ebp),%eax
  102e61:	50                   	push   %eax
  102e62:	0f b6 c1             	movzbl %cl,%eax
  102e65:	50                   	push   %eax
  102e66:	68 f6 55 10 00       	push   $0x1055f6
  102e6b:	e8 a8 19 00 00       	call   104818 <printf>
  102e70:	83 c4 10             	add    $0x10,%esp
  102e73:	8a 4d fc             	mov    -0x4(%ebp),%cl
  102e76:	38 4d f8             	cmp    %cl,-0x8(%ebp)
  102e79:	74 0d                	je     102e88 <getpacket+0xb0>
  102e7b:	6a 2d                	push   $0x2d
  102e7d:	e8 92 24 00 00       	call   105314 <putDebugChar>
  102e82:	83 c4 04             	add    $0x4,%esp
  102e85:	eb 51                	jmp    102ed8 <getpacket+0x100>
  102e87:	90                   	nop
  102e88:	6a 2b                	push   $0x2b
  102e8a:	e8 85 24 00 00       	call   105314 <putDebugChar>
  102e8f:	83 c4 04             	add    $0x4,%esp
  102e92:	80 7e 02 3a          	cmpb   $0x3a,0x2(%esi)
  102e96:	75 40                	jne    102ed8 <getpacket+0x100>
  102e98:	0f be 06             	movsbl (%esi),%eax
  102e9b:	50                   	push   %eax
  102e9c:	e8 73 24 00 00       	call   105314 <putDebugChar>
  102ea1:	0f be 46 01          	movsbl 0x1(%esi),%eax
  102ea5:	50                   	push   %eax
  102ea6:	e8 69 24 00 00       	call   105314 <putDebugChar>
  102eab:	30 c0                	xor    %al,%al
  102ead:	89 f7                	mov    %esi,%edi
  102eaf:	fc                   	cld    
  102eb0:	b9 ff ff ff ff       	mov    $0xffffffff,%ecx
  102eb5:	f2 ae                	repnz scas %es:(%edi),%al
  102eb7:	89 c8                	mov    %ecx,%eax
  102eb9:	f7 d0                	not    %eax
  102ebb:	8d 58 ff             	lea    -0x1(%eax),%ebx
  102ebe:	ba 03 00 00 00       	mov    $0x3,%edx
  102ec3:	83 c4 08             	add    $0x8,%esp
  102ec6:	39 da                	cmp    %ebx,%edx
  102ec8:	7f 0e                	jg     102ed8 <getpacket+0x100>
  102eca:	8d 36                	lea    (%esi),%esi
  102ecc:	8a 04 32             	mov    (%edx,%esi,1),%al
  102ecf:	88 44 16 fd          	mov    %al,-0x3(%esi,%edx,1)
  102ed3:	42                   	inc    %edx
  102ed4:	39 da                	cmp    %ebx,%edx
  102ed6:	7e f4                	jle    102ecc <getpacket+0xf4>
  102ed8:	8a 4d fc             	mov    -0x4(%ebp),%cl
  102edb:	38 4d f8             	cmp    %cl,-0x8(%ebp)
  102ede:	0f 85 00 ff ff ff    	jne    102de4 <getpacket+0xc>
  102ee4:	8d 65 ec             	lea    -0x14(%ebp),%esp
  102ee7:	5b                   	pop    %ebx
  102ee8:	5e                   	pop    %esi
  102ee9:	5f                   	pop    %edi
  102eea:	c9                   	leave  
  102eeb:	c3                   	ret    

00102eec <putpacket>:
  102eec:	55                   	push   %ebp
  102eed:	89 e5                	mov    %esp,%ebp
  102eef:	83 ec 04             	sub    $0x4,%esp
  102ef2:	57                   	push   %edi
  102ef3:	56                   	push   %esi
  102ef4:	53                   	push   %ebx
  102ef5:	8b 7d 08             	mov    0x8(%ebp),%edi
  102ef8:	6a 24                	push   $0x24
  102efa:	e8 15 24 00 00       	call   105314 <putDebugChar>
  102eff:	c6 45 fc 00          	movb   $0x0,-0x4(%ebp)
  102f03:	31 f6                	xor    %esi,%esi
  102f05:	83 c4 04             	add    $0x4,%esp
  102f08:	8a 1f                	mov    (%edi),%bl
  102f0a:	84 db                	test   %bl,%bl
  102f0c:	74 19                	je     102f27 <putpacket+0x3b>
  102f0e:	8d 36                	lea    (%esi),%esi
  102f10:	0f be c3             	movsbl %bl,%eax
  102f13:	50                   	push   %eax
  102f14:	e8 fb 23 00 00       	call   105314 <putDebugChar>
  102f19:	00 5d fc             	add    %bl,-0x4(%ebp)
  102f1c:	46                   	inc    %esi
  102f1d:	83 c4 04             	add    $0x4,%esp
  102f20:	8a 1c 3e             	mov    (%esi,%edi,1),%bl
  102f23:	84 db                	test   %bl,%bl
  102f25:	75 e9                	jne    102f10 <putpacket+0x24>
  102f27:	6a 23                	push   $0x23
  102f29:	e8 e6 23 00 00       	call   105314 <putDebugChar>
  102f2e:	8a 45 fc             	mov    -0x4(%ebp),%al
  102f31:	c0 e8 04             	shr    $0x4,%al
  102f34:	25 ff 00 00 00       	and    $0xff,%eax
  102f39:	0f be 80 e5 55 10 00 	movsbl 0x1055e5(%eax),%eax
  102f40:	50                   	push   %eax
  102f41:	e8 ce 23 00 00       	call   105314 <putDebugChar>
  102f46:	8a 45 fc             	mov    -0x4(%ebp),%al
  102f49:	83 e0 0f             	and    $0xf,%eax
  102f4c:	0f be 80 e5 55 10 00 	movsbl 0x1055e5(%eax),%eax
  102f53:	50                   	push   %eax
  102f54:	e8 bb 23 00 00       	call   105314 <putDebugChar>
  102f59:	83 c4 0c             	add    $0xc,%esp
  102f5c:	e8 8b 23 00 00       	call   1052ec <getDebugChar>
  102f61:	83 e0 7f             	and    $0x7f,%eax
  102f64:	83 f8 2b             	cmp    $0x2b,%eax
  102f67:	75 8f                	jne    102ef8 <putpacket+0xc>
  102f69:	8d 65 f0             	lea    -0x10(%ebp),%esp
  102f6c:	5b                   	pop    %ebx
  102f6d:	5e                   	pop    %esi
  102f6e:	5f                   	pop    %edi
  102f6f:	c9                   	leave  
  102f70:	c3                   	ret    
  102f71:	8d 76 00             	lea    0x0(%esi),%esi

00102f74 <debug_error>:
  102f74:	55                   	push   %ebp
  102f75:	89 e5                	mov    %esp,%ebp
  102f77:	83 3d 0c 25 12 00 00 	cmpl   $0x0,0x12250c
  102f7e:	74 0b                	je     102f8b <debug_error+0x17>
  102f80:	ff 75 0c             	pushl  0xc(%ebp)
  102f83:	ff 75 08             	pushl  0x8(%ebp)
  102f86:	e8 8d 18 00 00       	call   104818 <printf>
  102f8b:	c9                   	leave  
  102f8c:	c3                   	ret    
  102f8d:	8d 76 00             	lea    0x0(%esi),%esi

00102f90 <set_mem_err>:
  102f90:	55                   	push   %ebp
  102f91:	89 e5                	mov    %esp,%ebp
  102f93:	c7 05 84 59 10 00 01 	movl   $0x1,0x105984
  102f9a:	00 00 00 
  102f9d:	c9                   	leave  
  102f9e:	c3                   	ret    
  102f9f:	90                   	nop

00102fa0 <get_char>:
  102fa0:	55                   	push   %ebp
  102fa1:	89 e5                	mov    %esp,%ebp
  102fa3:	8b 45 08             	mov    0x8(%ebp),%eax
  102fa6:	0f be 00             	movsbl (%eax),%eax
  102fa9:	c9                   	leave  
  102faa:	c3                   	ret    
  102fab:	90                   	nop

00102fac <set_char>:
  102fac:	55                   	push   %ebp
  102fad:	89 e5                	mov    %esp,%ebp
  102faf:	8b 55 08             	mov    0x8(%ebp),%edx
  102fb2:	8b 45 0c             	mov    0xc(%ebp),%eax
  102fb5:	88 02                	mov    %al,(%edx)
  102fb7:	c9                   	leave  
  102fb8:	c3                   	ret    
  102fb9:	8d 76 00             	lea    0x0(%esi),%esi

00102fbc <mem2hex>:
  102fbc:	55                   	push   %ebp
  102fbd:	89 e5                	mov    %esp,%ebp
  102fbf:	57                   	push   %edi
  102fc0:	56                   	push   %esi
  102fc1:	53                   	push   %ebx
  102fc2:	8b 7d 08             	mov    0x8(%ebp),%edi
  102fc5:	8b 5d 0c             	mov    0xc(%ebp),%ebx
  102fc8:	83 7d 14 00          	cmpl   $0x0,0x14(%ebp)
  102fcc:	74 0a                	je     102fd8 <mem2hex+0x1c>
  102fce:	c7 05 80 59 10 00 90 	movl   $0x102f90,0x105980
  102fd5:	2f 10 00 
  102fd8:	31 f6                	xor    %esi,%esi
  102fda:	39 75 10             	cmp    %esi,0x10(%ebp)
  102fdd:	7e 43                	jle    103022 <mem2hex+0x66>
  102fdf:	90                   	nop
  102fe0:	57                   	push   %edi
  102fe1:	47                   	inc    %edi
  102fe2:	e8 b9 ff ff ff       	call   102fa0 <get_char>
  102fe7:	88 c2                	mov    %al,%dl
  102fe9:	83 c4 04             	add    $0x4,%esp
  102fec:	83 7d 14 00          	cmpl   $0x0,0x14(%ebp)
  102ff0:	74 09                	je     102ffb <mem2hex+0x3f>
  102ff2:	a1 84 59 10 00       	mov    0x105984,%eax
  102ff7:	85 c0                	test   %eax,%eax
  102ff9:	75 34                	jne    10302f <mem2hex+0x73>
  102ffb:	88 d0                	mov    %dl,%al
  102ffd:	c0 e8 04             	shr    $0x4,%al
  103000:	25 ff 00 00 00       	and    $0xff,%eax
  103005:	8a 80 e5 55 10 00    	mov    0x1055e5(%eax),%al
  10300b:	88 03                	mov    %al,(%ebx)
  10300d:	43                   	inc    %ebx
  10300e:	89 d0                	mov    %edx,%eax
  103010:	83 e0 0f             	and    $0xf,%eax
  103013:	8a 80 e5 55 10 00    	mov    0x1055e5(%eax),%al
  103019:	88 03                	mov    %al,(%ebx)
  10301b:	43                   	inc    %ebx
  10301c:	46                   	inc    %esi
  10301d:	39 75 10             	cmp    %esi,0x10(%ebp)
  103020:	7f be                	jg     102fe0 <mem2hex+0x24>
  103022:	c6 03 00             	movb   $0x0,(%ebx)
  103025:	c7 05 80 59 10 00 00 	movl   $0x0,0x105980
  10302c:	00 00 00 
  10302f:	89 d8                	mov    %ebx,%eax
  103031:	8d 65 f4             	lea    -0xc(%ebp),%esp
  103034:	5b                   	pop    %ebx
  103035:	5e                   	pop    %esi
  103036:	5f                   	pop    %edi
  103037:	c9                   	leave  
  103038:	c3                   	ret    
  103039:	8d 76 00             	lea    0x0(%esi),%esi

0010303c <hex2mem>:
  10303c:	55                   	push   %ebp
  10303d:	89 e5                	mov    %esp,%ebp
  10303f:	57                   	push   %edi
  103040:	56                   	push   %esi
  103041:	53                   	push   %ebx
  103042:	8b 75 08             	mov    0x8(%ebp),%esi
  103045:	83 7d 14 00          	cmpl   $0x0,0x14(%ebp)
  103049:	74 0a                	je     103055 <hex2mem+0x19>
  10304b:	c7 05 80 59 10 00 90 	movl   $0x102f90,0x105980
  103052:	2f 10 00 
  103055:	31 ff                	xor    %edi,%edi
  103057:	39 7d 10             	cmp    %edi,0x10(%ebp)
  10305a:	7e 42                	jle    10309e <hex2mem+0x62>
  10305c:	0f be 06             	movsbl (%esi),%eax
  10305f:	50                   	push   %eax
  103060:	46                   	inc    %esi
  103061:	e8 32 fd ff ff       	call   102d98 <hex>
  103066:	88 c3                	mov    %al,%bl
  103068:	c0 e3 04             	shl    $0x4,%bl
  10306b:	0f be 06             	movsbl (%esi),%eax
  10306e:	50                   	push   %eax
  10306f:	46                   	inc    %esi
  103070:	e8 23 fd ff ff       	call   102d98 <hex>
  103075:	00 c3                	add    %al,%bl
  103077:	0f b6 c3             	movzbl %bl,%eax
  10307a:	50                   	push   %eax
  10307b:	ff 75 0c             	pushl  0xc(%ebp)
  10307e:	ff 45 0c             	incl   0xc(%ebp)
  103081:	e8 26 ff ff ff       	call   102fac <set_char>
  103086:	83 c4 10             	add    $0x10,%esp
  103089:	83 7d 14 00          	cmpl   $0x0,0x14(%ebp)
  10308d:	74 09                	je     103098 <hex2mem+0x5c>
  10308f:	a1 84 59 10 00       	mov    0x105984,%eax
  103094:	85 c0                	test   %eax,%eax
  103096:	75 10                	jne    1030a8 <hex2mem+0x6c>
  103098:	47                   	inc    %edi
  103099:	39 7d 10             	cmp    %edi,0x10(%ebp)
  10309c:	7f be                	jg     10305c <hex2mem+0x20>
  10309e:	c7 05 80 59 10 00 00 	movl   $0x0,0x105980
  1030a5:	00 00 00 
  1030a8:	8b 45 0c             	mov    0xc(%ebp),%eax
  1030ab:	8d 65 f4             	lea    -0xc(%ebp),%esp
  1030ae:	5b                   	pop    %ebx
  1030af:	5e                   	pop    %esi
  1030b0:	5f                   	pop    %edi
  1030b1:	c9                   	leave  
  1030b2:	c3                   	ret    
  1030b3:	90                   	nop

001030b4 <computeSignal>:
  1030b4:	55                   	push   %ebp
  1030b5:	89 e5                	mov    %esp,%ebp
  1030b7:	8b 45 08             	mov    0x8(%ebp),%eax
  1030ba:	83 f8 10             	cmp    $0x10,%eax
  1030bd:	77 7d                	ja     10313c <computeSignal+0x88>
  1030bf:	ff 24 85 c8 30 10 00 	jmp    *0x1030c8(,%eax,4)
  1030c6:	8d 36                	lea    (%esi),%esi
  1030c8:	0c 31                	or     $0x31,%al
  1030ca:	10 00                	adc    %al,(%eax)
  1030cc:	14 31                	adc    $0x31,%al
  1030ce:	10 00                	adc    %al,(%eax)
  1030d0:	3c 31                	cmp    $0x31,%al
  1030d2:	10 00                	adc    %al,(%eax)
  1030d4:	14 31                	adc    $0x31,%al
  1030d6:	10 00                	adc    %al,(%eax)
  1030d8:	1c 31                	sbb    $0x31,%al
  1030da:	10 00                	adc    %al,(%eax)
  1030dc:	1c 31                	sbb    $0x31,%al
  1030de:	10 00                	adc    %al,(%eax)
  1030e0:	24 31                	and    $0x31,%al
  1030e2:	10 00                	adc    %al,(%eax)
  1030e4:	0c 31                	or     $0x31,%al
  1030e6:	10 00                	adc    %al,(%eax)
  1030e8:	2c 31                	sub    $0x31,%al
  1030ea:	10 00                	adc    %al,(%eax)
  1030ec:	34 31                	xor    $0x31,%al
  1030ee:	10 00                	adc    %al,(%eax)
  1030f0:	34 31                	xor    $0x31,%al
  1030f2:	10 00                	adc    %al,(%eax)
  1030f4:	34 31                	xor    $0x31,%al
  1030f6:	10 00                	adc    %al,(%eax)
  1030f8:	34 31                	xor    $0x31,%al
  1030fa:	10 00                	adc    %al,(%eax)
  1030fc:	34 31                	xor    $0x31,%al
  1030fe:	10 00                	adc    %al,(%eax)
  103100:	34 31                	xor    $0x31,%al
  103102:	10 00                	adc    %al,(%eax)
  103104:	3c 31                	cmp    $0x31,%al
  103106:	10 00                	adc    %al,(%eax)
  103108:	2c 31                	sub    $0x31,%al
  10310a:	10 00                	adc    %al,(%eax)
  10310c:	b8 08 00 00 00       	mov    $0x8,%eax
  103111:	c9                   	leave  
  103112:	c3                   	ret    
  103113:	90                   	nop
  103114:	b8 05 00 00 00       	mov    $0x5,%eax
  103119:	c9                   	leave  
  10311a:	c3                   	ret    
  10311b:	90                   	nop
  10311c:	b8 10 00 00 00       	mov    $0x10,%eax
  103121:	c9                   	leave  
  103122:	c3                   	ret    
  103123:	90                   	nop
  103124:	b8 04 00 00 00       	mov    $0x4,%eax
  103129:	c9                   	leave  
  10312a:	c3                   	ret    
  10312b:	90                   	nop
  10312c:	b8 07 00 00 00       	mov    $0x7,%eax
  103131:	c9                   	leave  
  103132:	c3                   	ret    
  103133:	90                   	nop
  103134:	b8 0b 00 00 00       	mov    $0xb,%eax
  103139:	c9                   	leave  
  10313a:	c3                   	ret    
  10313b:	90                   	nop
  10313c:	b8 07 00 00 00       	mov    $0x7,%eax
  103141:	c9                   	leave  
  103142:	c3                   	ret    
  103143:	90                   	nop

00103144 <hexToInt>:
  103144:	55                   	push   %ebp
  103145:	89 e5                	mov    %esp,%ebp
  103147:	57                   	push   %edi
  103148:	56                   	push   %esi
  103149:	53                   	push   %ebx
  10314a:	8b 5d 08             	mov    0x8(%ebp),%ebx
  10314d:	8b 7d 0c             	mov    0xc(%ebp),%edi
  103150:	31 f6                	xor    %esi,%esi
  103152:	c7 07 00 00 00 00    	movl   $0x0,(%edi)
  103158:	8b 03                	mov    (%ebx),%eax
  10315a:	89 c2                	mov    %eax,%edx
  10315c:	80 38 00             	cmpb   $0x0,(%eax)
  10315f:	74 28                	je     103189 <hexToInt+0x45>
  103161:	8d 76 00             	lea    0x0(%esi),%esi
  103164:	0f be 02             	movsbl (%edx),%eax
  103167:	50                   	push   %eax
  103168:	e8 2b fc ff ff       	call   102d98 <hex>
  10316d:	89 c2                	mov    %eax,%edx
  10316f:	83 c4 04             	add    $0x4,%esp
  103172:	85 d2                	test   %edx,%edx
  103174:	7c 13                	jl     103189 <hexToInt+0x45>
  103176:	8b 07                	mov    (%edi),%eax
  103178:	c1 e0 04             	shl    $0x4,%eax
  10317b:	09 d0                	or     %edx,%eax
  10317d:	89 07                	mov    %eax,(%edi)
  10317f:	46                   	inc    %esi
  103180:	ff 03                	incl   (%ebx)
  103182:	8b 13                	mov    (%ebx),%edx
  103184:	80 3a 00             	cmpb   $0x0,(%edx)
  103187:	75 db                	jne    103164 <hexToInt+0x20>
  103189:	89 f0                	mov    %esi,%eax
  10318b:	8d 65 f4             	lea    -0xc(%ebp),%esp
  10318e:	5b                   	pop    %ebx
  10318f:	5e                   	pop    %esi
  103190:	5f                   	pop    %edi
  103191:	c9                   	leave  
  103192:	c3                   	ret    
  103193:	90                   	nop

00103194 <handle_exception>:
  103194:	55                   	push   %ebp
  103195:	89 e5                	mov    %esp,%ebp
  103197:	83 ec 0c             	sub    $0xc,%esp
  10319a:	56                   	push   %esi
  10319b:	53                   	push   %ebx
  10319c:	8b 5d 08             	mov    0x8(%ebp),%ebx
  10319f:	89 1d 40 24 10 00    	mov    %ebx,0x102440
  1031a5:	83 3d 0c 25 12 00 00 	cmpl   $0x0,0x12250c
  1031ac:	74 1a                	je     1031c8 <handle_exception+0x34>
  1031ae:	ff 35 ec 24 12 00    	pushl  0x1224ec
  1031b4:	ff 35 f0 24 12 00    	pushl  0x1224f0
  1031ba:	53                   	push   %ebx
  1031bb:	68 29 56 10 00       	push   $0x105629
  1031c0:	e8 53 16 00 00       	call   104818 <printf>
  1031c5:	83 c4 10             	add    $0x10,%esp
  1031c8:	83 fb fe             	cmp    $0xfffffffe,%ebx
  1031cb:	75 23                	jne    1031f0 <handle_exception+0x5c>
  1031cd:	a1 46 56 10 00       	mov    0x105646,%eax
  1031d2:	a3 b8 4d 12 00       	mov    %eax,0x124db8
  1031d7:	68 b8 4d 12 00       	push   $0x124db8
  1031dc:	e8 0b fd ff ff       	call   102eec <putpacket>
  1031e1:	c6 05 80 5a 10 00 00 	movb   $0x0,0x105a80
  1031e8:	e8 9b 10 00 00       	call   104288 <FlamingExit>
  1031ed:	83 c4 04             	add    $0x4,%esp
  1031f0:	53                   	push   %ebx
  1031f1:	e8 be fe ff ff       	call   1030b4 <computeSignal>
  1031f6:	89 c3                	mov    %eax,%ebx
  1031f8:	c6 05 b8 4d 12 00 53 	movb   $0x53,0x124db8
  1031ff:	c1 f8 04             	sar    $0x4,%eax
  103202:	8a 80 e5 55 10 00    	mov    0x1055e5(%eax),%al
  103208:	88 05 b9 4d 12 00    	mov    %al,0x124db9
  10320e:	89 d8                	mov    %ebx,%eax
  103210:	85 db                	test   %ebx,%ebx
  103212:	7d 03                	jge    103217 <handle_exception+0x83>
  103214:	8d 43 0f             	lea    0xf(%ebx),%eax
  103217:	24 f0                	and    $0xf0,%al
  103219:	89 d9                	mov    %ebx,%ecx
  10321b:	29 c1                	sub    %eax,%ecx
  10321d:	89 c8                	mov    %ecx,%eax
  10321f:	8a 80 e5 55 10 00    	mov    0x1055e5(%eax),%al
  103225:	88 05 ba 4d 12 00    	mov    %al,0x124dba
  10322b:	c6 05 bb 4d 12 00 00 	movb   $0x0,0x124dbb
  103232:	68 b8 4d 12 00       	push   $0x124db8
  103237:	e8 b0 fc ff ff       	call   102eec <putpacket>
  10323c:	83 c4 08             	add    $0x8,%esp
  10323f:	8d 75 fc             	lea    -0x4(%ebp),%esi
  103242:	8d 36                	lea    (%esi),%esi
  103244:	66 c7 05 88 5a 10 00 	movw   $0x0,0x105a88
  10324b:	00 00 
  10324d:	c6 05 b8 4d 12 00 00 	movb   $0x0,0x124db8
  103254:	68 10 25 12 00       	push   $0x122510
  103259:	e8 7a fb ff ff       	call   102dd8 <getpacket>
  10325e:	83 c4 04             	add    $0x4,%esp
  103261:	8a 05 10 25 12 00    	mov    0x122510,%al
  103267:	04 c1                	add    $0xc1,%al
  103269:	0f be c0             	movsbl %al,%eax
  10326c:	83 f8 34             	cmp    $0x34,%eax
  10326f:	0f 87 43 03 00 00    	ja     1035b8 <handle_exception+0x424>
  103275:	ff 24 85 7c 32 10 00 	jmp    *0x10327c(,%eax,4)
  10327c:	50                   	push   %eax
  10327d:	33 10                	xor    (%eax),%edx
  10327f:	00 b8 35 10 00 b8    	add    %bh,-0x47ffefcb(%eax)
  103285:	35 10 00 b8 35       	xor    $0x35b80010,%eax
  10328a:	10 00                	adc    %al,(%eax)
  10328c:	b8 35 10 00 b8       	mov    $0xb8001035,%eax
  103291:	35 10 00 b8 35       	xor    $0x35b80010,%eax
  103296:	10 00                	adc    %al,(%eax)
  103298:	b8 35 10 00 cc       	mov    $0xcc001035,%eax
  10329d:	33 10                	xor    (%eax),%edx
  10329f:	00 b8 35 10 00 b8    	add    %bh,-0x47ffefcb(%eax)
  1032a5:	35 10 00 b8 35       	xor    $0x35b80010,%eax
  1032aa:	10 00                	adc    %al,(%eax)
  1032ac:	b8 35 10 00 b8       	mov    $0xb8001035,%eax
  1032b1:	35 10 00 a0 34       	xor    $0x34a00010,%eax
  1032b6:	10 00                	adc    %al,(%eax)
  1032b8:	b8 35 10 00 b8       	mov    $0xb8001035,%eax
  1032bd:	35 10 00 b8 35       	xor    $0x35b80010,%eax
  1032c2:	10 00                	adc    %al,(%eax)
  1032c4:	b8 35 10 00 b8       	mov    $0xb8001035,%eax
  1032c9:	35 10 00 b8 35       	xor    $0x35b80010,%eax
  1032ce:	10 00                	adc    %al,(%eax)
  1032d0:	b8 35 10 00 b8       	mov    $0xb8001035,%eax
  1032d5:	35 10 00 b8 35       	xor    $0x35b80010,%eax
  1032da:	10 00                	adc    %al,(%eax)
  1032dc:	b8 35 10 00 b8       	mov    $0xb8001035,%eax
  1032e1:	35 10 00 b8 35       	xor    $0x35b80010,%eax
  1032e6:	10 00                	adc    %al,(%eax)
  1032e8:	b8 35 10 00 b8       	mov    $0xb8001035,%eax
  1032ed:	35 10 00 b8 35       	xor    $0x35b80010,%eax
  1032f2:	10 00                	adc    %al,(%eax)
  1032f4:	b8 35 10 00 b8       	mov    $0xb8001035,%eax
  1032f9:	35 10 00 b8 35       	xor    $0x35b80010,%eax
  1032fe:	10 00                	adc    %al,(%eax)
  103300:	b8 35 10 00 b8       	mov    $0xb8001035,%eax
  103305:	35 10 00 b8 35       	xor    $0x35b80010,%eax
  10330a:	10 00                	adc    %al,(%eax)
  10330c:	68 35 10 00 94       	push   $0x94001035
  103311:	33 10                	xor    (%eax),%edx
  103313:	00 b8 35 10 00 b8    	add    %bh,-0x47ffefcb(%eax)
  103319:	35 10 00 b0 33       	xor    $0x33b00010,%eax
  10331e:	10 00                	adc    %al,(%eax)
  103320:	b8 35 10 00 b8       	mov    $0xb8001035,%eax
  103325:	35 10 00 b8 35       	xor    $0x35b80010,%eax
  10332a:	10 00                	adc    %al,(%eax)
  10332c:	ac                   	lods   %ds:(%esi),%al
  10332d:	35 10 00 b8 35       	xor    $0x35b80010,%eax
  103332:	10 00                	adc    %al,(%eax)
  103334:	00 34 10             	add    %dh,(%eax,%edx,1)
  103337:	00 b8 35 10 00 b8    	add    %bh,-0x47ffefcb(%eax)
  10333d:	35 10 00 b8 35       	xor    $0x35b80010,%eax
  103342:	10 00                	adc    %al,(%eax)
  103344:	b8 35 10 00 b8       	mov    $0xb8001035,%eax
  103349:	35 10 00 68 35       	xor    $0x35680010,%eax
  10334e:	10 00                	adc    %al,(%eax)
  103350:	c6 05 b8 4d 12 00 53 	movb   $0x53,0x124db8
  103357:	89 d8                	mov    %ebx,%eax
  103359:	c1 f8 04             	sar    $0x4,%eax
  10335c:	8a 80 e5 55 10 00    	mov    0x1055e5(%eax),%al
  103362:	88 05 b9 4d 12 00    	mov    %al,0x124db9
  103368:	ba ba 4d 12 00       	mov    $0x124dba,%edx
  10336d:	89 d8                	mov    %ebx,%eax
  10336f:	85 db                	test   %ebx,%ebx
  103371:	7d 03                	jge    103376 <handle_exception+0x1e2>
  103373:	8d 43 0f             	lea    0xf(%ebx),%eax
  103376:	24 f0                	and    $0xf0,%al
  103378:	89 d9                	mov    %ebx,%ecx
  10337a:	29 c1                	sub    %eax,%ecx
  10337c:	89 c8                	mov    %ecx,%eax
  10337e:	8a 80 e5 55 10 00    	mov    0x1055e5(%eax),%al
  103384:	88 02                	mov    %al,(%edx)
  103386:	c6 05 bb 4d 12 00 00 	movb   $0x0,0x124dbb
  10338d:	e9 26 02 00 00       	jmp    1035b8 <handle_exception+0x424>
  103392:	8d 36                	lea    (%esi),%esi
  103394:	83 3d 0c 25 12 00 00 	cmpl   $0x0,0x12250c
  10339b:	0f 94 c0             	sete   %al
  10339e:	25 ff 00 00 00       	and    $0xff,%eax
  1033a3:	a3 0c 25 12 00       	mov    %eax,0x12250c
  1033a8:	e9 0b 02 00 00       	jmp    1035b8 <handle_exception+0x424>
  1033ad:	8d 76 00             	lea    0x0(%esi),%esi
  1033b0:	6a 00                	push   $0x0
  1033b2:	6a 40                	push   $0x40
  1033b4:	68 b8 4d 12 00       	push   $0x124db8
  1033b9:	68 cc 24 12 00       	push   $0x1224cc
  1033be:	e8 f9 fb ff ff       	call   102fbc <mem2hex>
  1033c3:	83 c4 10             	add    $0x10,%esp
  1033c6:	e9 ed 01 00 00       	jmp    1035b8 <handle_exception+0x424>
  1033cb:	90                   	nop
  1033cc:	6a 00                	push   $0x0
  1033ce:	6a 40                	push   $0x40
  1033d0:	68 cc 24 12 00       	push   $0x1224cc
  1033d5:	68 11 25 12 00       	push   $0x122511
  1033da:	e8 5d fc ff ff       	call   10303c <hex2mem>
  1033df:	66 a1 4a 56 10 00    	mov    0x10564a,%ax
  1033e5:	66 a3 b8 4d 12 00    	mov    %ax,0x124db8
  1033eb:	8a 05 4c 56 10 00    	mov    0x10564c,%al
  1033f1:	88 05 ba 4d 12 00    	mov    %al,0x124dba
  1033f7:	83 c4 10             	add    $0x10,%esp
  1033fa:	e9 b9 01 00 00       	jmp    1035b8 <handle_exception+0x424>
  1033ff:	90                   	nop
  103400:	c7 45 fc 11 25 12 00 	movl   $0x122511,-0x4(%ebp)
  103407:	8d 45 f8             	lea    -0x8(%ebp),%eax
  10340a:	50                   	push   %eax
  10340b:	56                   	push   %esi
  10340c:	e8 33 fd ff ff       	call   103144 <hexToInt>
  103411:	83 c4 08             	add    $0x8,%esp
  103414:	85 c0                	test   %eax,%eax
  103416:	74 62                	je     10347a <handle_exception+0x2e6>
  103418:	8b 45 fc             	mov    -0x4(%ebp),%eax
  10341b:	ff 45 fc             	incl   -0x4(%ebp)
  10341e:	80 38 2c             	cmpb   $0x2c,(%eax)
  103421:	75 57                	jne    10347a <handle_exception+0x2e6>
  103423:	8d 45 f4             	lea    -0xc(%ebp),%eax
  103426:	50                   	push   %eax
  103427:	56                   	push   %esi
  103428:	e8 17 fd ff ff       	call   103144 <hexToInt>
  10342d:	83 c4 08             	add    $0x8,%esp
  103430:	85 c0                	test   %eax,%eax
  103432:	74 46                	je     10347a <handle_exception+0x2e6>
  103434:	c7 45 fc 00 00 00 00 	movl   $0x0,-0x4(%ebp)
  10343b:	c7 05 84 59 10 00 00 	movl   $0x0,0x105984
  103442:	00 00 00 
  103445:	6a 01                	push   $0x1
  103447:	ff 75 f4             	pushl  -0xc(%ebp)
  10344a:	68 b8 4d 12 00       	push   $0x124db8
  10344f:	ff 75 f8             	pushl  -0x8(%ebp)
  103452:	e8 65 fb ff ff       	call   102fbc <mem2hex>
  103457:	83 c4 10             	add    $0x10,%esp
  10345a:	a1 84 59 10 00       	mov    0x105984,%eax
  10345f:	85 c0                	test   %eax,%eax
  103461:	74 17                	je     10347a <handle_exception+0x2e6>
  103463:	a1 4d 56 10 00       	mov    0x10564d,%eax
  103468:	a3 b8 4d 12 00       	mov    %eax,0x124db8
  10346d:	68 51 56 10 00       	push   $0x105651
  103472:	e8 fd fa ff ff       	call   102f74 <debug_error>
  103477:	83 c4 04             	add    $0x4,%esp
  10347a:	83 7d fc 00          	cmpl   $0x0,-0x4(%ebp)
  10347e:	0f 84 34 01 00 00    	je     1035b8 <handle_exception+0x424>
  103484:	a1 5e 56 10 00       	mov    0x10565e,%eax
  103489:	a3 b8 4d 12 00       	mov    %eax,0x124db8
  10348e:	68 10 25 12 00       	push   $0x122510
  103493:	68 62 56 10 00       	push   $0x105662
  103498:	e9 c0 00 00 00       	jmp    10355d <handle_exception+0x3c9>
  10349d:	8d 76 00             	lea    0x0(%esi),%esi
  1034a0:	c7 45 fc 11 25 12 00 	movl   $0x122511,-0x4(%ebp)
  1034a7:	8d 45 f8             	lea    -0x8(%ebp),%eax
  1034aa:	50                   	push   %eax
  1034ab:	56                   	push   %esi
  1034ac:	e8 93 fc ff ff       	call   103144 <hexToInt>
  1034b1:	83 c4 08             	add    $0x8,%esp
  1034b4:	85 c0                	test   %eax,%eax
  1034b6:	0f 84 87 00 00 00    	je     103543 <handle_exception+0x3af>
  1034bc:	8b 45 fc             	mov    -0x4(%ebp),%eax
  1034bf:	ff 45 fc             	incl   -0x4(%ebp)
  1034c2:	80 38 2c             	cmpb   $0x2c,(%eax)
  1034c5:	75 7c                	jne    103543 <handle_exception+0x3af>
  1034c7:	8d 45 f4             	lea    -0xc(%ebp),%eax
  1034ca:	50                   	push   %eax
  1034cb:	56                   	push   %esi
  1034cc:	e8 73 fc ff ff       	call   103144 <hexToInt>
  1034d1:	83 c4 08             	add    $0x8,%esp
  1034d4:	85 c0                	test   %eax,%eax
  1034d6:	74 6b                	je     103543 <handle_exception+0x3af>
  1034d8:	8b 45 fc             	mov    -0x4(%ebp),%eax
  1034db:	ff 45 fc             	incl   -0x4(%ebp)
  1034de:	80 38 3a             	cmpb   $0x3a,(%eax)
  1034e1:	75 60                	jne    103543 <handle_exception+0x3af>
  1034e3:	c7 05 84 59 10 00 00 	movl   $0x0,0x105984
  1034ea:	00 00 00 
  1034ed:	6a 01                	push   $0x1
  1034ef:	ff 75 f4             	pushl  -0xc(%ebp)
  1034f2:	ff 75 f8             	pushl  -0x8(%ebp)
  1034f5:	ff 75 fc             	pushl  -0x4(%ebp)
  1034f8:	e8 3f fb ff ff       	call   10303c <hex2mem>
  1034fd:	83 c4 10             	add    $0x10,%esp
  103500:	a1 84 59 10 00       	mov    0x105984,%eax
  103505:	85 c0                	test   %eax,%eax
  103507:	74 1b                	je     103524 <handle_exception+0x390>
  103509:	a1 4d 56 10 00       	mov    0x10564d,%eax
  10350e:	a3 b8 4d 12 00       	mov    %eax,0x124db8
  103513:	68 51 56 10 00       	push   $0x105651
  103518:	e8 57 fa ff ff       	call   102f74 <debug_error>
  10351d:	83 c4 04             	add    $0x4,%esp
  103520:	eb 1a                	jmp    10353c <handle_exception+0x3a8>
  103522:	8d 36                	lea    (%esi),%esi
  103524:	66 a1 4a 56 10 00    	mov    0x10564a,%ax
  10352a:	66 a3 b8 4d 12 00    	mov    %ax,0x124db8
  103530:	8a 05 4c 56 10 00    	mov    0x10564c,%al
  103536:	88 05 ba 4d 12 00    	mov    %al,0x124dba
  10353c:	c7 45 fc 00 00 00 00 	movl   $0x0,-0x4(%ebp)
  103543:	83 7d fc 00          	cmpl   $0x0,-0x4(%ebp)
  103547:	74 6f                	je     1035b8 <handle_exception+0x424>
  103549:	a1 84 56 10 00       	mov    0x105684,%eax
  10354e:	a3 b8 4d 12 00       	mov    %eax,0x124db8
  103553:	68 10 25 12 00       	push   $0x122510
  103558:	68 88 56 10 00       	push   $0x105688
  10355d:	e8 12 fa ff ff       	call   102f74 <debug_error>
  103562:	83 c4 08             	add    $0x8,%esp
  103565:	eb 51                	jmp    1035b8 <handle_exception+0x424>
  103567:	90                   	nop
  103568:	c7 45 fc 11 25 12 00 	movl   $0x122511,-0x4(%ebp)
  10356f:	8d 45 f8             	lea    -0x8(%ebp),%eax
  103572:	50                   	push   %eax
  103573:	56                   	push   %esi
  103574:	e8 cb fb ff ff       	call   103144 <hexToInt>
  103579:	83 c4 08             	add    $0x8,%esp
  10357c:	85 c0                	test   %eax,%eax
  10357e:	74 08                	je     103588 <handle_exception+0x3f4>
  103580:	8b 45 f8             	mov    -0x8(%ebp),%eax
  103583:	a3 ec 24 12 00       	mov    %eax,0x1224ec
  103588:	81 25 f0 24 12 00 ff 	andl   $0xfffffeff,0x1224f0
  10358f:	fe ff ff 
  103592:	80 3d 10 25 12 00 73 	cmpb   $0x73,0x122510
  103599:	75 0a                	jne    1035a5 <handle_exception+0x411>
  10359b:	81 0d f0 24 12 00 00 	orl    $0x100,0x1224f0
  1035a2:	01 00 00 
  1035a5:	e8 e2 f7 ff ff       	call   102d8c <_returnFromException>
  1035aa:	eb 0c                	jmp    1035b8 <handle_exception+0x424>
  1035ac:	c6 05 80 5a 10 00 00 	movb   $0x0,0x105a80
  1035b3:	e8 d0 0c 00 00       	call   104288 <FlamingExit>
  1035b8:	68 b8 4d 12 00       	push   $0x124db8
  1035bd:	e8 2a f9 ff ff       	call   102eec <putpacket>
  1035c2:	83 c4 04             	add    $0x4,%esp
  1035c5:	e9 7a fc ff ff       	jmp    103244 <handle_exception+0xb0>
  1035ca:	8d 36                	lea    (%esi),%esi

001035cc <set_debug_traps>:
  1035cc:	55                   	push   %ebp
  1035cd:	89 e5                	mov    %esp,%ebp
  1035cf:	c7 05 7c 59 10 00 b4 	movl   $0x124db4,0x10597c
  1035d6:	4d 12 00 
  1035d9:	68 8d 25 10 00       	push   $0x10258d
  1035de:	6a 00                	push   $0x0
  1035e0:	e8 5f 1d 00 00       	call   105344 <exceptionHandler>
  1035e5:	68 f7 24 10 00       	push   $0x1024f7
  1035ea:	6a 01                	push   $0x1
  1035ec:	e8 53 1d 00 00       	call   105344 <exceptionHandler>
  1035f1:	68 61 24 10 00       	push   $0x102461
  1035f6:	6a 03                	push   $0x3
  1035f8:	e8 47 1d 00 00       	call   105344 <exceptionHandler>
  1035fd:	68 23 26 10 00       	push   $0x102623
  103602:	6a 04                	push   $0x4
  103604:	e8 3b 1d 00 00       	call   105344 <exceptionHandler>
  103609:	83 c4 20             	add    $0x20,%esp
  10360c:	68 b9 26 10 00       	push   $0x1026b9
  103611:	6a 05                	push   $0x5
  103613:	e8 2c 1d 00 00       	call   105344 <exceptionHandler>
  103618:	68 4f 27 10 00       	push   $0x10274f
  10361d:	6a 06                	push   $0x6
  10361f:	e8 20 1d 00 00       	call   105344 <exceptionHandler>
  103624:	68 e5 27 10 00       	push   $0x1027e5
  103629:	6a 07                	push   $0x7
  10362b:	e8 14 1d 00 00       	call   105344 <exceptionHandler>
  103630:	68 7b 28 10 00       	push   $0x10287b
  103635:	6a 08                	push   $0x8
  103637:	e8 08 1d 00 00       	call   105344 <exceptionHandler>
  10363c:	83 c4 20             	add    $0x20,%esp
  10363f:	68 18 29 10 00       	push   $0x102918
  103644:	6a 09                	push   $0x9
  103646:	e8 f9 1c 00 00       	call   105344 <exceptionHandler>
  10364b:	68 ae 29 10 00       	push   $0x1029ae
  103650:	6a 0a                	push   $0xa
  103652:	e8 ed 1c 00 00       	call   105344 <exceptionHandler>
  103657:	68 28 2c 10 00       	push   $0x102c28
  10365c:	6a 0b                	push   $0xb
  10365e:	e8 e1 1c 00 00       	call   105344 <exceptionHandler>
  103663:	68 4b 2a 10 00       	push   $0x102a4b
  103668:	6a 0c                	push   $0xc
  10366a:	e8 d5 1c 00 00       	call   105344 <exceptionHandler>
  10366f:	83 c4 20             	add    $0x20,%esp
  103672:	68 7e 2b 10 00       	push   $0x102b7e
  103677:	6a 0d                	push   $0xd
  103679:	e8 c6 1c 00 00       	call   105344 <exceptionHandler>
  10367e:	68 d2 2c 10 00       	push   $0x102cd2
  103683:	6a 0e                	push   $0xe
  103685:	e8 ba 1c 00 00       	call   105344 <exceptionHandler>
  10368a:	68 e8 2a 10 00       	push   $0x102ae8
  10368f:	6a 10                	push   $0x10
  103691:	e8 ae 1c 00 00       	call   105344 <exceptionHandler>
  103696:	83 c4 18             	add    $0x18,%esp
  103699:	81 3d a0 26 12 00 7c 	cmpl   $0x102d7c,0x1226a0
  1036a0:	2d 10 00 
  1036a3:	74 14                	je     1036b9 <set_debug_traps+0xed>
  1036a5:	a1 a0 26 12 00       	mov    0x1226a0,%eax
  1036aa:	a3 84 5a 10 00       	mov    %eax,0x105a84
  1036af:	c7 05 a0 26 12 00 7c 	movl   $0x102d7c,0x1226a0
  1036b6:	2d 10 00 
  1036b9:	6a 2b                	push   $0x2b
  1036bb:	e8 54 1c 00 00       	call   105314 <putDebugChar>
  1036c0:	68 ab 56 10 00       	push   $0x1056ab
  1036c5:	e8 a2 0a 00 00       	call   10416c <cons_putstr>
  1036ca:	c6 05 80 5a 10 00 01 	movb   $0x1,0x105a80
  1036d1:	c9                   	leave  
  1036d2:	c3                   	ret    

001036d3 <GDBexit>:
  1036d3:	a3 cc 24 12 00       	mov    %eax,0x1224cc
  1036d8:	89 0d d0 24 12 00    	mov    %ecx,0x1224d0
  1036de:	89 15 d4 24 12 00    	mov    %edx,0x1224d4
  1036e4:	89 1d d8 24 12 00    	mov    %ebx,0x1224d8
  1036ea:	89 2d e0 24 12 00    	mov    %ebp,0x1224e0
  1036f0:	89 35 e4 24 12 00    	mov    %esi,0x1224e4
  1036f6:	89 3d e8 24 12 00    	mov    %edi,0x1224e8
  1036fc:	66 b8 00 00          	mov    $0x0,%ax
  103700:	66                   	data16
  103701:	8c 1d fc 24 12 00    	mov    %ds,0x1224fc
  103707:	66 a3 fe 24 12 00    	mov    %ax,0x1224fe
  10370d:	66                   	data16
  10370e:	8c 05 00 25 12 00    	mov    %es,0x122500
  103714:	66 a3 02 25 12 00    	mov    %ax,0x122502
  10371a:	66                   	data16
  10371b:	8c 25 04 25 12 00    	mov    %fs,0x122504
  103721:	66 a3 06 25 12 00    	mov    %ax,0x122506
  103727:	66                   	data16
  103728:	8c 2d 08 25 12 00    	mov    %gs,0x122508
  10372e:	66 a3 0a 25 12 00    	mov    %ax,0x12250a
  103734:	5b                   	pop    %ebx
  103735:	89 1d ec 24 12 00    	mov    %ebx,0x1224ec
  10373b:	5b                   	pop    %ebx
  10373c:	89 1d f4 24 12 00    	mov    %ebx,0x1224f4
  103742:	66 a3 f6 24 12 00    	mov    %ax,0x1224f6
  103748:	5b                   	pop    %ebx
  103749:	89 1d f0 24 12 00    	mov    %ebx,0x1224f0
  10374f:	66                   	data16
  103750:	8c 15 f8 24 12 00    	mov    %ss,0x1224f8
  103756:	66 a3 fa 24 12 00    	mov    %ax,0x1224fa
  10375c:	89 25 dc 24 12 00    	mov    %esp,0x1224dc
  103762:	31 c0                	xor    %eax,%eax
  103764:	a3 a4 26 12 00       	mov    %eax,0x1226a4
  103769:	6a fe                	push   $0xfffffffe
  10376b:	e8 0c f6 ff ff       	call   102d7c <_remcomHandler>
  103770:	c3                   	ret    
  103771:	8d 76 00             	lea    0x0(%esi),%esi

00103774 <breakpoint>:
  103774:	55                   	push   %ebp
  103775:	89 e5                	mov    %esp,%ebp
  103777:	80 3d 80 5a 10 00 00 	cmpb   $0x0,0x105a80
  10377e:	74 01                	je     103781 <breakpoint+0xd>
  103780:	cc                   	int3   
  103781:	e8 02 00 00 00       	call   103788 <waitabit>
  103786:	c9                   	leave  
  103787:	c3                   	ret    

00103788 <waitabit>:
  103788:	55                   	push   %ebp
  103789:	89 e5                	mov    %esp,%ebp
  10378b:	31 d2                	xor    %edx,%edx
  10378d:	39 15 88 59 10 00    	cmp    %edx,0x105988
  103793:	7e 0e                	jle    1037a3 <waitabit+0x1b>
  103795:	8d 76 00             	lea    0x0(%esi),%esi
  103798:	e4 80                	in     $0x80,%al
  10379a:	42                   	inc    %edx
  10379b:	39 15 88 59 10 00    	cmp    %edx,0x105988
  1037a1:	7f f5                	jg     103798 <waitabit+0x10>
  1037a3:	c9                   	leave  
  1037a4:	c3                   	ret    
  1037a5:	90                   	nop
  1037a6:	90                   	nop
  1037a7:	90                   	nop

001037a8 <brk>:
  1037a8:	55                   	push   %ebp
  1037a9:	89 e5                	mov    %esp,%ebp
  1037ab:	8b 45 08             	mov    0x8(%ebp),%eax
  1037ae:	83 c0 0f             	add    $0xf,%eax
  1037b1:	24 f0                	and    $0xf0,%al
  1037b3:	83 3d 8c 5a 10 00 00 	cmpl   $0x0,0x105a8c
  1037ba:	75 18                	jne    1037d4 <brk+0x2c>
  1037bc:	a3 90 5a 10 00       	mov    %eax,0x105a90
  1037c1:	a3 8c 5a 10 00       	mov    %eax,0x105a8c
  1037c6:	c7 05 48 4f 12 00 00 	movl   $0xe00000,0x124f48
  1037cd:	00 e0 00 
  1037d0:	31 c0                	xor    %eax,%eax
  1037d2:	c9                   	leave  
  1037d3:	c3                   	ret    
  1037d4:	39 05 8c 5a 10 00    	cmp    %eax,0x105a8c
  1037da:	76 05                	jbe    1037e1 <brk+0x39>
  1037dc:	a1 8c 5a 10 00       	mov    0x105a8c,%eax
  1037e1:	a3 90 5a 10 00       	mov    %eax,0x105a90
  1037e6:	31 c0                	xor    %eax,%eax
  1037e8:	c9                   	leave  
  1037e9:	c3                   	ret    
  1037ea:	8d 36                	lea    (%esi),%esi

001037ec <sbrk>:
  1037ec:	55                   	push   %ebp
  1037ed:	89 e5                	mov    %esp,%ebp
  1037ef:	8b 55 08             	mov    0x8(%ebp),%edx
  1037f2:	a1 90 5a 10 00       	mov    0x105a90,%eax
  1037f7:	85 d2                	test   %edx,%edx
  1037f9:	74 2f                	je     10382a <sbrk+0x3e>
  1037fb:	83 c2 0f             	add    $0xf,%edx
  1037fe:	80 e2 f0             	and    $0xf0,%dl
  103801:	01 c2                	add    %eax,%edx
  103803:	39 15 8c 5a 10 00    	cmp    %edx,0x105a8c
  103809:	77 08                	ja     103813 <sbrk+0x27>
  10380b:	39 15 48 4f 12 00    	cmp    %edx,0x124f48
  103811:	77 11                	ja     103824 <sbrk+0x38>
  103813:	68 bc 56 10 00       	push   $0x1056bc
  103818:	e8 97 0a 00 00       	call   1042b4 <putstr>
  10381d:	b8 ff ff ff ff       	mov    $0xffffffff,%eax
  103822:	c9                   	leave  
  103823:	c3                   	ret    
  103824:	89 15 90 5a 10 00    	mov    %edx,0x105a90
  10382a:	c9                   	leave  
  10382b:	c3                   	ret    

0010382c <cons_update_video_cursor>:
  10382c:	55                   	push   %ebp
  10382d:	89 e5                	mov    %esp,%ebp
  10382f:	53                   	push   %ebx
  103830:	0f b6 05 91 59 10 00 	movzbl 0x105991,%eax
  103837:	8d 04 80             	lea    (%eax,%eax,4),%eax
  10383a:	89 c3                	mov    %eax,%ebx
  10383c:	66 c1 e3 04          	shl    $0x4,%bx
  103840:	66 0f b6 05 90 59 10 	movzbw 0x105990,%ax
  103847:	00 
  103848:	66 01 c3             	add    %ax,%bx
  10384b:	6a 0e                	push   $0xe
  10384d:	68 d4 03 00 00       	push   $0x3d4
  103852:	e8 f9 0d 00 00       	call   104650 <outportb>
  103857:	89 d8                	mov    %ebx,%eax
  103859:	66 c1 e8 08          	shr    $0x8,%ax
  10385d:	25 ff ff 00 00       	and    $0xffff,%eax
  103862:	50                   	push   %eax
  103863:	68 d5 03 00 00       	push   $0x3d5
  103868:	e8 e3 0d 00 00       	call   104650 <outportb>
  10386d:	6a 0f                	push   $0xf
  10386f:	68 d4 03 00 00       	push   $0x3d4
  103874:	e8 d7 0d 00 00       	call   104650 <outportb>
  103879:	0f b6 c3             	movzbl %bl,%eax
  10387c:	50                   	push   %eax
  10387d:	68 d5 03 00 00       	push   $0x3d5
  103882:	e8 c9 0d 00 00       	call   104650 <outportb>
  103887:	8b 5d fc             	mov    -0x4(%ebp),%ebx
  10388a:	c9                   	leave  
  10388b:	c3                   	ret    

0010388c <cons_scroll_up>:
  10388c:	55                   	push   %ebp
  10388d:	89 e5                	mov    %esp,%ebp
  10388f:	31 d2                	xor    %edx,%edx
  103891:	8b 0d 8c 59 10 00    	mov    0x10598c,%ecx
  103897:	90                   	nop
  103898:	66 8b 84 51 a0 00 00 	mov    0xa0(%ecx,%edx,2),%ax
  10389f:	00 
  1038a0:	66 89 04 51          	mov    %ax,(%ecx,%edx,2)
  1038a4:	42                   	inc    %edx
  1038a5:	81 fa 7f 07 00 00    	cmp    $0x77f,%edx
  1038ab:	76 eb                	jbe    103898 <cons_scroll_up+0xc>
  1038ad:	ba 80 07 00 00       	mov    $0x780,%edx
  1038b2:	8b 0d 8c 59 10 00    	mov    0x10598c,%ecx
  1038b8:	66 a1 94 59 10 00    	mov    0x105994,%ax
  1038be:	0c 20                	or     $0x20,%al
  1038c0:	66 89 04 51          	mov    %ax,(%ecx,%edx,2)
  1038c4:	42                   	inc    %edx
  1038c5:	81 fa cf 07 00 00    	cmp    $0x7cf,%edx
  1038cb:	76 f3                	jbe    1038c0 <cons_scroll_up+0x34>
  1038cd:	c9                   	leave  
  1038ce:	c3                   	ret    
  1038cf:	90                   	nop

001038d0 <cons_putchar>:
  1038d0:	55                   	push   %ebp
  1038d1:	89 e5                	mov    %esp,%ebp
  1038d3:	83 ec 04             	sub    $0x4,%esp
  1038d6:	53                   	push   %ebx
  1038d7:	8b 5d 08             	mov    0x8(%ebp),%ebx
  1038da:	8d 45 fc             	lea    -0x4(%ebp),%eax
  1038dd:	50                   	push   %eax
  1038de:	e8 c5 0f 00 00       	call   1048a8 <splhigh>
  1038e3:	83 c4 04             	add    $0x4,%esp
  1038e6:	8d 43 f8             	lea    -0x8(%ebx),%eax
  1038e9:	83 f8 05             	cmp    $0x5,%eax
  1038ec:	77 6a                	ja     103958 <cons_putchar+0x88>
  1038ee:	ff 24 85 f8 38 10 00 	jmp    *0x1038f8(,%eax,4)
  1038f5:	8d 76 00             	lea    0x0(%esi),%esi
  1038f8:	3c 39                	cmp    $0x39,%al
  1038fa:	10 00                	adc    %al,(%eax)
  1038fc:	10 39                	adc    %bh,(%ecx)
  1038fe:	10 00                	adc    %al,(%eax)
  103900:	34 39                	xor    $0x39,%al
  103902:	10 00                	adc    %al,(%eax)
  103904:	58                   	pop    %eax
  103905:	39 10                	cmp    %edx,(%eax)
  103907:	00 50 39             	add    %dl,0x39(%eax)
  10390a:	10 00                	adc    %al,(%eax)
  10390c:	28 39                	sub    %bh,(%ecx)
  10390e:	10 00                	adc    %al,(%eax)
  103910:	6a 20                	push   $0x20
  103912:	e8 b9 ff ff ff       	call   1038d0 <cons_putchar>
  103917:	83 c4 04             	add    $0x4,%esp
  10391a:	f6 05 90 59 10 00 07 	testb  $0x7,0x105990
  103921:	75 ed                	jne    103910 <cons_putchar+0x40>
  103923:	e9 8a 00 00 00       	jmp    1039b2 <cons_putchar+0xe2>
  103928:	c6 05 90 59 10 00 00 	movb   $0x0,0x105990
  10392f:	e9 7e 00 00 00       	jmp    1039b2 <cons_putchar+0xe2>
  103934:	e8 8f 00 00 00       	call   1039c8 <cons_println>
  103939:	eb 77                	jmp    1039b2 <cons_putchar+0xe2>
  10393b:	90                   	nop
  10393c:	80 3d 90 59 10 00 00 	cmpb   $0x0,0x105990
  103943:	74 6d                	je     1039b2 <cons_putchar+0xe2>
  103945:	fe 0d 90 59 10 00    	decb   0x105990
  10394b:	eb 65                	jmp    1039b2 <cons_putchar+0xe2>
  10394d:	8d 76 00             	lea    0x0(%esi),%esi
  103950:	e8 b3 00 00 00       	call   103a08 <cons_clear>
  103955:	eb 5b                	jmp    1039b2 <cons_putchar+0xe2>
  103957:	90                   	nop
  103958:	0f b6 05 91 59 10 00 	movzbl 0x105991,%eax
  10395f:	0f b6 15 90 59 10 00 	movzbl 0x105990,%edx
  103966:	8d 04 80             	lea    (%eax,%eax,4),%eax
  103969:	c1 e0 04             	shl    $0x4,%eax
  10396c:	01 d0                	add    %edx,%eax
  10396e:	8b 15 8c 59 10 00    	mov    0x10598c,%edx
  103974:	66 8b 0d 94 59 10 00 	mov    0x105994,%cx
  10397b:	66 09 d9             	or     %bx,%cx
  10397e:	66 89 0c 42          	mov    %cx,(%edx,%eax,2)
  103982:	fe 05 90 59 10 00    	incb   0x105990
  103988:	80 3d 90 59 10 00 4f 	cmpb   $0x4f,0x105990
  10398f:	76 21                	jbe    1039b2 <cons_putchar+0xe2>
  103991:	c6 05 90 59 10 00 00 	movb   $0x0,0x105990
  103998:	fe 05 91 59 10 00    	incb   0x105991
  10399e:	80 3d 91 59 10 00 18 	cmpb   $0x18,0x105991
  1039a5:	76 0b                	jbe    1039b2 <cons_putchar+0xe2>
  1039a7:	e8 e0 fe ff ff       	call   10388c <cons_scroll_up>
  1039ac:	fe 0d 91 59 10 00    	decb   0x105991
  1039b2:	e8 75 fe ff ff       	call   10382c <cons_update_video_cursor>
  1039b7:	8d 45 fc             	lea    -0x4(%ebp),%eax
  1039ba:	50                   	push   %eax
  1039bb:	e8 f4 0e 00 00       	call   1048b4 <splx>
  1039c0:	8b 5d f8             	mov    -0x8(%ebp),%ebx
  1039c3:	c9                   	leave  
  1039c4:	c3                   	ret    
  1039c5:	8d 76 00             	lea    0x0(%esi),%esi

001039c8 <cons_println>:
  1039c8:	55                   	push   %ebp
  1039c9:	89 e5                	mov    %esp,%ebp
  1039cb:	83 ec 04             	sub    $0x4,%esp
  1039ce:	8d 45 fc             	lea    -0x4(%ebp),%eax
  1039d1:	50                   	push   %eax
  1039d2:	e8 d1 0e 00 00       	call   1048a8 <splhigh>
  1039d7:	c6 05 90 59 10 00 00 	movb   $0x0,0x105990
  1039de:	fe 05 91 59 10 00    	incb   0x105991
  1039e4:	83 c4 04             	add    $0x4,%esp
  1039e7:	80 3d 91 59 10 00 18 	cmpb   $0x18,0x105991
  1039ee:	76 0b                	jbe    1039fb <cons_println+0x33>
  1039f0:	e8 97 fe ff ff       	call   10388c <cons_scroll_up>
  1039f5:	fe 0d 91 59 10 00    	decb   0x105991
  1039fb:	8d 45 fc             	lea    -0x4(%ebp),%eax
  1039fe:	50                   	push   %eax
  1039ff:	e8 b0 0e 00 00       	call   1048b4 <splx>
  103a04:	c9                   	leave  
  103a05:	c3                   	ret    
  103a06:	8d 36                	lea    (%esi),%esi

00103a08 <cons_clear>:
  103a08:	55                   	push   %ebp
  103a09:	89 e5                	mov    %esp,%ebp
  103a0b:	83 ec 04             	sub    $0x4,%esp
  103a0e:	57                   	push   %edi
  103a0f:	56                   	push   %esi
  103a10:	53                   	push   %ebx
  103a11:	8d 45 fc             	lea    -0x4(%ebp),%eax
  103a14:	50                   	push   %eax
  103a15:	e8 8e 0e 00 00       	call   1048a8 <splhigh>
  103a1a:	31 c9                	xor    %ecx,%ecx
  103a1c:	83 c4 04             	add    $0x4,%esp
  103a1f:	8b 3d 8c 59 10 00    	mov    0x10598c,%edi
  103a25:	66 8b 35 94 59 10 00 	mov    0x105994,%si
  103a2c:	66 83 ce 20          	or     $0x20,%si
  103a30:	88 0d 91 59 10 00    	mov    %cl,0x105991
  103a36:	31 d2                	xor    %edx,%edx
  103a38:	0f b6 c1             	movzbl %cl,%eax
  103a3b:	8d 04 80             	lea    (%eax,%eax,4),%eax
  103a3e:	89 c3                	mov    %eax,%ebx
  103a40:	c1 e3 04             	shl    $0x4,%ebx
  103a43:	90                   	nop
  103a44:	88 15 90 59 10 00    	mov    %dl,0x105990
  103a4a:	0f b6 c2             	movzbl %dl,%eax
  103a4d:	01 d8                	add    %ebx,%eax
  103a4f:	66 89 34 47          	mov    %si,(%edi,%eax,2)
  103a53:	42                   	inc    %edx
  103a54:	83 fa 4f             	cmp    $0x4f,%edx
  103a57:	7e eb                	jle    103a44 <cons_clear+0x3c>
  103a59:	41                   	inc    %ecx
  103a5a:	83 f9 18             	cmp    $0x18,%ecx
  103a5d:	7e d1                	jle    103a30 <cons_clear+0x28>
  103a5f:	c6 05 90 59 10 00 00 	movb   $0x0,0x105990
  103a66:	c6 05 91 59 10 00 00 	movb   $0x0,0x105991
  103a6d:	8d 45 fc             	lea    -0x4(%ebp),%eax
  103a70:	50                   	push   %eax
  103a71:	e8 3e 0e 00 00       	call   1048b4 <splx>
  103a76:	8d 65 f0             	lea    -0x10(%ebp),%esp
  103a79:	5b                   	pop    %ebx
  103a7a:	5e                   	pop    %esi
  103a7b:	5f                   	pop    %edi
  103a7c:	c9                   	leave  
  103a7d:	c3                   	ret    
  103a7e:	8d 36                	lea    (%esi),%esi

00103a80 <cons_gotoRC>:
  103a80:	55                   	push   %ebp
  103a81:	89 e5                	mov    %esp,%ebp
  103a83:	83 ec 04             	sub    $0x4,%esp
  103a86:	56                   	push   %esi
  103a87:	53                   	push   %ebx
  103a88:	8b 5d 08             	mov    0x8(%ebp),%ebx
  103a8b:	8b 75 0c             	mov    0xc(%ebp),%esi
  103a8e:	8d 45 fc             	lea    -0x4(%ebp),%eax
  103a91:	50                   	push   %eax
  103a92:	e8 11 0e 00 00       	call   1048a8 <splhigh>
  103a97:	83 c4 04             	add    $0x4,%esp
  103a9a:	85 db                	test   %ebx,%ebx
  103a9c:	7c 17                	jl     103ab5 <cons_gotoRC+0x35>
  103a9e:	85 f6                	test   %esi,%esi
  103aa0:	7c 13                	jl     103ab5 <cons_gotoRC+0x35>
  103aa2:	88 1d 91 59 10 00    	mov    %bl,0x105991
  103aa8:	89 f2                	mov    %esi,%edx
  103aaa:	88 15 90 59 10 00    	mov    %dl,0x105990
  103ab0:	e8 77 fd ff ff       	call   10382c <cons_update_video_cursor>
  103ab5:	8d 45 fc             	lea    -0x4(%ebp),%eax
  103ab8:	50                   	push   %eax
  103ab9:	e8 f6 0d 00 00       	call   1048b4 <splx>
  103abe:	8d 65 f4             	lea    -0xc(%ebp),%esp
  103ac1:	5b                   	pop    %ebx
  103ac2:	5e                   	pop    %esi
  103ac3:	c9                   	leave  
  103ac4:	c3                   	ret    
  103ac5:	8d 76 00             	lea    0x0(%esi),%esi

00103ac8 <cons_kbhit>:
  103ac8:	55                   	push   %ebp
  103ac9:	89 e5                	mov    %esp,%ebp
  103acb:	83 ec 04             	sub    $0x4,%esp
  103ace:	53                   	push   %ebx
  103acf:	8d 5d fc             	lea    -0x4(%ebp),%ebx
  103ad2:	53                   	push   %ebx
  103ad3:	e8 d0 0d 00 00       	call   1048a8 <splhigh>
  103ad8:	83 c4 04             	add    $0x4,%esp
  103adb:	83 3d 94 5a 10 00 00 	cmpl   $0x0,0x105a94
  103ae2:	74 08                	je     103aec <cons_kbhit+0x24>
  103ae4:	53                   	push   %ebx
  103ae5:	e9 d7 05 00 00       	jmp    1040c1 <cons_kbhit+0x5f9>
  103aea:	8d 36                	lea    (%esi),%esi
  103aec:	6a 64                	push   $0x64
  103aee:	e8 55 0b 00 00       	call   104648 <inportb>
  103af3:	83 c4 04             	add    $0x4,%esp
  103af6:	a8 01                	test   $0x1,%al
  103af8:	75 12                	jne    103b0c <cons_kbhit+0x44>
  103afa:	8d 45 fc             	lea    -0x4(%ebp),%eax
  103afd:	50                   	push   %eax
  103afe:	e8 b1 0d 00 00       	call   1048b4 <splx>
  103b03:	31 c0                	xor    %eax,%eax
  103b05:	e9 c1 05 00 00       	jmp    1040cb <cons_kbhit+0x603>
  103b0a:	8d 36                	lea    (%esi),%esi
  103b0c:	6a 60                	push   $0x60
  103b0e:	e8 35 0b 00 00       	call   104648 <inportb>
  103b13:	88 c1                	mov    %al,%cl
  103b15:	83 c4 04             	add    $0x4,%esp
  103b18:	0f b6 c1             	movzbl %cl,%eax
  103b1b:	3d ff 00 00 00       	cmp    $0xff,%eax
  103b20:	0f 87 22 05 00 00    	ja     104048 <cons_kbhit+0x580>
  103b26:	ff 24 85 30 3b 10 00 	jmp    *0x103b30(,%eax,4)
  103b2d:	8d 76 00             	lea    0x0(%esi),%esi
  103b30:	38 40 10             	cmp    %al,0x10(%eax)
  103b33:	00 48 40             	add    %cl,0x40(%eax)
  103b36:	10 00                	adc    %al,(%eax)
  103b38:	48                   	dec    %eax
  103b39:	40                   	inc    %eax
  103b3a:	10 00                	adc    %al,(%eax)
  103b3c:	48                   	dec    %eax
  103b3d:	40                   	inc    %eax
  103b3e:	10 00                	adc    %al,(%eax)
  103b40:	48                   	dec    %eax
  103b41:	40                   	inc    %eax
  103b42:	10 00                	adc    %al,(%eax)
  103b44:	48                   	dec    %eax
  103b45:	40                   	inc    %eax
  103b46:	10 00                	adc    %al,(%eax)
  103b48:	48                   	dec    %eax
  103b49:	40                   	inc    %eax
  103b4a:	10 00                	adc    %al,(%eax)
  103b4c:	48                   	dec    %eax
  103b4d:	40                   	inc    %eax
  103b4e:	10 00                	adc    %al,(%eax)
  103b50:	48                   	dec    %eax
  103b51:	40                   	inc    %eax
  103b52:	10 00                	adc    %al,(%eax)
  103b54:	48                   	dec    %eax
  103b55:	40                   	inc    %eax
  103b56:	10 00                	adc    %al,(%eax)
  103b58:	48                   	dec    %eax
  103b59:	40                   	inc    %eax
  103b5a:	10 00                	adc    %al,(%eax)
  103b5c:	48                   	dec    %eax
  103b5d:	40                   	inc    %eax
  103b5e:	10 00                	adc    %al,(%eax)
  103b60:	48                   	dec    %eax
  103b61:	40                   	inc    %eax
  103b62:	10 00                	adc    %al,(%eax)
  103b64:	48                   	dec    %eax
  103b65:	40                   	inc    %eax
  103b66:	10 00                	adc    %al,(%eax)
  103b68:	48                   	dec    %eax
  103b69:	40                   	inc    %eax
  103b6a:	10 00                	adc    %al,(%eax)
  103b6c:	48                   	dec    %eax
  103b6d:	40                   	inc    %eax
  103b6e:	10 00                	adc    %al,(%eax)
  103b70:	48                   	dec    %eax
  103b71:	40                   	inc    %eax
  103b72:	10 00                	adc    %al,(%eax)
  103b74:	48                   	dec    %eax
  103b75:	40                   	inc    %eax
  103b76:	10 00                	adc    %al,(%eax)
  103b78:	48                   	dec    %eax
  103b79:	40                   	inc    %eax
  103b7a:	10 00                	adc    %al,(%eax)
  103b7c:	48                   	dec    %eax
  103b7d:	40                   	inc    %eax
  103b7e:	10 00                	adc    %al,(%eax)
  103b80:	48                   	dec    %eax
  103b81:	40                   	inc    %eax
  103b82:	10 00                	adc    %al,(%eax)
  103b84:	48                   	dec    %eax
  103b85:	40                   	inc    %eax
  103b86:	10 00                	adc    %al,(%eax)
  103b88:	48                   	dec    %eax
  103b89:	40                   	inc    %eax
  103b8a:	10 00                	adc    %al,(%eax)
  103b8c:	48                   	dec    %eax
  103b8d:	40                   	inc    %eax
  103b8e:	10 00                	adc    %al,(%eax)
  103b90:	48                   	dec    %eax
  103b91:	40                   	inc    %eax
  103b92:	10 00                	adc    %al,(%eax)
  103b94:	48                   	dec    %eax
  103b95:	40                   	inc    %eax
  103b96:	10 00                	adc    %al,(%eax)
  103b98:	48                   	dec    %eax
  103b99:	40                   	inc    %eax
  103b9a:	10 00                	adc    %al,(%eax)
  103b9c:	48                   	dec    %eax
  103b9d:	40                   	inc    %eax
  103b9e:	10 00                	adc    %al,(%eax)
  103ba0:	48                   	dec    %eax
  103ba1:	40                   	inc    %eax
  103ba2:	10 00                	adc    %al,(%eax)
  103ba4:	08 40 10             	or     %al,0x10(%eax)
  103ba7:	00 48 40             	add    %cl,0x40(%eax)
  103baa:	10 00                	adc    %al,(%eax)
  103bac:	48                   	dec    %eax
  103bad:	40                   	inc    %eax
  103bae:	10 00                	adc    %al,(%eax)
  103bb0:	48                   	dec    %eax
  103bb1:	40                   	inc    %eax
  103bb2:	10 00                	adc    %al,(%eax)
  103bb4:	48                   	dec    %eax
  103bb5:	40                   	inc    %eax
  103bb6:	10 00                	adc    %al,(%eax)
  103bb8:	48                   	dec    %eax
  103bb9:	40                   	inc    %eax
  103bba:	10 00                	adc    %al,(%eax)
  103bbc:	48                   	dec    %eax
  103bbd:	40                   	inc    %eax
  103bbe:	10 00                	adc    %al,(%eax)
  103bc0:	48                   	dec    %eax
  103bc1:	40                   	inc    %eax
  103bc2:	10 00                	adc    %al,(%eax)
  103bc4:	48                   	dec    %eax
  103bc5:	40                   	inc    %eax
  103bc6:	10 00                	adc    %al,(%eax)
  103bc8:	48                   	dec    %eax
  103bc9:	40                   	inc    %eax
  103bca:	10 00                	adc    %al,(%eax)
  103bcc:	48                   	dec    %eax
  103bcd:	40                   	inc    %eax
  103bce:	10 00                	adc    %al,(%eax)
  103bd0:	48                   	dec    %eax
  103bd1:	40                   	inc    %eax
  103bd2:	10 00                	adc    %al,(%eax)
  103bd4:	48                   	dec    %eax
  103bd5:	40                   	inc    %eax
  103bd6:	10 00                	adc    %al,(%eax)
  103bd8:	30 3f                	xor    %bh,(%edi)
  103bda:	10 00                	adc    %al,(%eax)
  103bdc:	48                   	dec    %eax
  103bdd:	40                   	inc    %eax
  103bde:	10 00                	adc    %al,(%eax)
  103be0:	48                   	dec    %eax
  103be1:	40                   	inc    %eax
  103be2:	10 00                	adc    %al,(%eax)
  103be4:	48                   	dec    %eax
  103be5:	40                   	inc    %eax
  103be6:	10 00                	adc    %al,(%eax)
  103be8:	48                   	dec    %eax
  103be9:	40                   	inc    %eax
  103bea:	10 00                	adc    %al,(%eax)
  103bec:	48                   	dec    %eax
  103bed:	40                   	inc    %eax
  103bee:	10 00                	adc    %al,(%eax)
  103bf0:	48                   	dec    %eax
  103bf1:	40                   	inc    %eax
  103bf2:	10 00                	adc    %al,(%eax)
  103bf4:	48                   	dec    %eax
  103bf5:	40                   	inc    %eax
  103bf6:	10 00                	adc    %al,(%eax)
  103bf8:	48                   	dec    %eax
  103bf9:	40                   	inc    %eax
  103bfa:	10 00                	adc    %al,(%eax)
  103bfc:	48                   	dec    %eax
  103bfd:	40                   	inc    %eax
  103bfe:	10 00                	adc    %al,(%eax)
  103c00:	48                   	dec    %eax
  103c01:	40                   	inc    %eax
  103c02:	10 00                	adc    %al,(%eax)
  103c04:	48                   	dec    %eax
  103c05:	40                   	inc    %eax
  103c06:	10 00                	adc    %al,(%eax)
  103c08:	30 3f                	xor    %bh,(%edi)
  103c0a:	10 00                	adc    %al,(%eax)
  103c0c:	48                   	dec    %eax
  103c0d:	40                   	inc    %eax
  103c0e:	10 00                	adc    %al,(%eax)
  103c10:	48                   	dec    %eax
  103c11:	40                   	inc    %eax
  103c12:	10 00                	adc    %al,(%eax)
  103c14:	48                   	dec    %eax
  103c15:	40                   	inc    %eax
  103c16:	10 00                	adc    %al,(%eax)
  103c18:	ec                   	in     (%dx),%al
  103c19:	3a 10                	cmp    (%eax),%dl
  103c1b:	00 40 3f             	add    %al,0x3f(%eax)
  103c1e:	10 00                	adc    %al,(%eax)
  103c20:	4c                   	dec    %esp
  103c21:	3f                   	aas    
  103c22:	10 00                	adc    %al,(%eax)
  103c24:	58                   	pop    %eax
  103c25:	3f                   	aas    
  103c26:	10 00                	adc    %al,(%eax)
  103c28:	64                   	fs
  103c29:	3f                   	aas    
  103c2a:	10 00                	adc    %al,(%eax)
  103c2c:	70 3f                	jo     103c6d <cons_kbhit+0x1a5>
  103c2e:	10 00                	adc    %al,(%eax)
  103c30:	7c 3f                	jl     103c71 <cons_kbhit+0x1a9>
  103c32:	10 00                	adc    %al,(%eax)
  103c34:	88 3f                	mov    %bh,(%edi)
  103c36:	10 00                	adc    %al,(%eax)
  103c38:	94                   	xchg   %eax,%esp
  103c39:	3f                   	aas    
  103c3a:	10 00                	adc    %al,(%eax)
  103c3c:	a0 3f 10 00 ac       	mov    0xac00103f,%al
  103c41:	3f                   	aas    
  103c42:	10 00                	adc    %al,(%eax)
  103c44:	ec                   	in     (%dx),%al
  103c45:	3a 10                	cmp    (%eax),%dl
  103c47:	00 48 40             	add    %cl,0x40(%eax)
  103c4a:	10 00                	adc    %al,(%eax)
  103c4c:	48                   	dec    %eax
  103c4d:	40                   	inc    %eax
  103c4e:	10 00                	adc    %al,(%eax)
  103c50:	48                   	dec    %eax
  103c51:	40                   	inc    %eax
  103c52:	10 00                	adc    %al,(%eax)
  103c54:	48                   	dec    %eax
  103c55:	40                   	inc    %eax
  103c56:	10 00                	adc    %al,(%eax)
  103c58:	48                   	dec    %eax
  103c59:	40                   	inc    %eax
  103c5a:	10 00                	adc    %al,(%eax)
  103c5c:	48                   	dec    %eax
  103c5d:	40                   	inc    %eax
  103c5e:	10 00                	adc    %al,(%eax)
  103c60:	48                   	dec    %eax
  103c61:	40                   	inc    %eax
  103c62:	10 00                	adc    %al,(%eax)
  103c64:	48                   	dec    %eax
  103c65:	40                   	inc    %eax
  103c66:	10 00                	adc    %al,(%eax)
  103c68:	48                   	dec    %eax
  103c69:	40                   	inc    %eax
  103c6a:	10 00                	adc    %al,(%eax)
  103c6c:	48                   	dec    %eax
  103c6d:	40                   	inc    %eax
  103c6e:	10 00                	adc    %al,(%eax)
  103c70:	48                   	dec    %eax
  103c71:	40                   	inc    %eax
  103c72:	10 00                	adc    %al,(%eax)
  103c74:	48                   	dec    %eax
  103c75:	40                   	inc    %eax
  103c76:	10 00                	adc    %al,(%eax)
  103c78:	48                   	dec    %eax
  103c79:	40                   	inc    %eax
  103c7a:	10 00                	adc    %al,(%eax)
  103c7c:	48                   	dec    %eax
  103c7d:	40                   	inc    %eax
  103c7e:	10 00                	adc    %al,(%eax)
  103c80:	48                   	dec    %eax
  103c81:	40                   	inc    %eax
  103c82:	10 00                	adc    %al,(%eax)
  103c84:	48                   	dec    %eax
  103c85:	40                   	inc    %eax
  103c86:	10 00                	adc    %al,(%eax)
  103c88:	48                   	dec    %eax
  103c89:	40                   	inc    %eax
  103c8a:	10 00                	adc    %al,(%eax)
  103c8c:	b8 3f 10 00 c4       	mov    $0xc400103f,%eax
  103c91:	3f                   	aas    
  103c92:	10 00                	adc    %al,(%eax)
  103c94:	48                   	dec    %eax
  103c95:	40                   	inc    %eax
  103c96:	10 00                	adc    %al,(%eax)
  103c98:	48                   	dec    %eax
  103c99:	40                   	inc    %eax
  103c9a:	10 00                	adc    %al,(%eax)
  103c9c:	48                   	dec    %eax
  103c9d:	40                   	inc    %eax
  103c9e:	10 00                	adc    %al,(%eax)
  103ca0:	48                   	dec    %eax
  103ca1:	40                   	inc    %eax
  103ca2:	10 00                	adc    %al,(%eax)
  103ca4:	48                   	dec    %eax
  103ca5:	40                   	inc    %eax
  103ca6:	10 00                	adc    %al,(%eax)
  103ca8:	48                   	dec    %eax
  103ca9:	40                   	inc    %eax
  103caa:	10 00                	adc    %al,(%eax)
  103cac:	48                   	dec    %eax
  103cad:	40                   	inc    %eax
  103cae:	10 00                	adc    %al,(%eax)
  103cb0:	48                   	dec    %eax
  103cb1:	40                   	inc    %eax
  103cb2:	10 00                	adc    %al,(%eax)
  103cb4:	48                   	dec    %eax
  103cb5:	40                   	inc    %eax
  103cb6:	10 00                	adc    %al,(%eax)
  103cb8:	48                   	dec    %eax
  103cb9:	40                   	inc    %eax
  103cba:	10 00                	adc    %al,(%eax)
  103cbc:	48                   	dec    %eax
  103cbd:	40                   	inc    %eax
  103cbe:	10 00                	adc    %al,(%eax)
  103cc0:	48                   	dec    %eax
  103cc1:	40                   	inc    %eax
  103cc2:	10 00                	adc    %al,(%eax)
  103cc4:	48                   	dec    %eax
  103cc5:	40                   	inc    %eax
  103cc6:	10 00                	adc    %al,(%eax)
  103cc8:	48                   	dec    %eax
  103cc9:	40                   	inc    %eax
  103cca:	10 00                	adc    %al,(%eax)
  103ccc:	48                   	dec    %eax
  103ccd:	40                   	inc    %eax
  103cce:	10 00                	adc    %al,(%eax)
  103cd0:	48                   	dec    %eax
  103cd1:	40                   	inc    %eax
  103cd2:	10 00                	adc    %al,(%eax)
  103cd4:	48                   	dec    %eax
  103cd5:	40                   	inc    %eax
  103cd6:	10 00                	adc    %al,(%eax)
  103cd8:	48                   	dec    %eax
  103cd9:	40                   	inc    %eax
  103cda:	10 00                	adc    %al,(%eax)
  103cdc:	48                   	dec    %eax
  103cdd:	40                   	inc    %eax
  103cde:	10 00                	adc    %al,(%eax)
  103ce0:	48                   	dec    %eax
  103ce1:	40                   	inc    %eax
  103ce2:	10 00                	adc    %al,(%eax)
  103ce4:	48                   	dec    %eax
  103ce5:	40                   	inc    %eax
  103ce6:	10 00                	adc    %al,(%eax)
  103ce8:	48                   	dec    %eax
  103ce9:	40                   	inc    %eax
  103cea:	10 00                	adc    %al,(%eax)
  103cec:	48                   	dec    %eax
  103ced:	40                   	inc    %eax
  103cee:	10 00                	adc    %al,(%eax)
  103cf0:	48                   	dec    %eax
  103cf1:	40                   	inc    %eax
  103cf2:	10 00                	adc    %al,(%eax)
  103cf4:	48                   	dec    %eax
  103cf5:	40                   	inc    %eax
  103cf6:	10 00                	adc    %al,(%eax)
  103cf8:	48                   	dec    %eax
  103cf9:	40                   	inc    %eax
  103cfa:	10 00                	adc    %al,(%eax)
  103cfc:	48                   	dec    %eax
  103cfd:	40                   	inc    %eax
  103cfe:	10 00                	adc    %al,(%eax)
  103d00:	48                   	dec    %eax
  103d01:	40                   	inc    %eax
  103d02:	10 00                	adc    %al,(%eax)
  103d04:	48                   	dec    %eax
  103d05:	40                   	inc    %eax
  103d06:	10 00                	adc    %al,(%eax)
  103d08:	48                   	dec    %eax
  103d09:	40                   	inc    %eax
  103d0a:	10 00                	adc    %al,(%eax)
  103d0c:	48                   	dec    %eax
  103d0d:	40                   	inc    %eax
  103d0e:	10 00                	adc    %al,(%eax)
  103d10:	48                   	dec    %eax
  103d11:	40                   	inc    %eax
  103d12:	10 00                	adc    %al,(%eax)
  103d14:	48                   	dec    %eax
  103d15:	40                   	inc    %eax
  103d16:	10 00                	adc    %al,(%eax)
  103d18:	48                   	dec    %eax
  103d19:	40                   	inc    %eax
  103d1a:	10 00                	adc    %al,(%eax)
  103d1c:	48                   	dec    %eax
  103d1d:	40                   	inc    %eax
  103d1e:	10 00                	adc    %al,(%eax)
  103d20:	48                   	dec    %eax
  103d21:	40                   	inc    %eax
  103d22:	10 00                	adc    %al,(%eax)
  103d24:	48                   	dec    %eax
  103d25:	40                   	inc    %eax
  103d26:	10 00                	adc    %al,(%eax)
  103d28:	48                   	dec    %eax
  103d29:	40                   	inc    %eax
  103d2a:	10 00                	adc    %al,(%eax)
  103d2c:	48                   	dec    %eax
  103d2d:	40                   	inc    %eax
  103d2e:	10 00                	adc    %al,(%eax)
  103d30:	48                   	dec    %eax
  103d31:	40                   	inc    %eax
  103d32:	10 00                	adc    %al,(%eax)
  103d34:	48                   	dec    %eax
  103d35:	40                   	inc    %eax
  103d36:	10 00                	adc    %al,(%eax)
  103d38:	48                   	dec    %eax
  103d39:	40                   	inc    %eax
  103d3a:	10 00                	adc    %al,(%eax)
  103d3c:	48                   	dec    %eax
  103d3d:	40                   	inc    %eax
  103d3e:	10 00                	adc    %al,(%eax)
  103d40:	48                   	dec    %eax
  103d41:	40                   	inc    %eax
  103d42:	10 00                	adc    %al,(%eax)
  103d44:	48                   	dec    %eax
  103d45:	40                   	inc    %eax
  103d46:	10 00                	adc    %al,(%eax)
  103d48:	48                   	dec    %eax
  103d49:	40                   	inc    %eax
  103d4a:	10 00                	adc    %al,(%eax)
  103d4c:	48                   	dec    %eax
  103d4d:	40                   	inc    %eax
  103d4e:	10 00                	adc    %al,(%eax)
  103d50:	48                   	dec    %eax
  103d51:	40                   	inc    %eax
  103d52:	10 00                	adc    %al,(%eax)
  103d54:	48                   	dec    %eax
  103d55:	40                   	inc    %eax
  103d56:	10 00                	adc    %al,(%eax)
  103d58:	48                   	dec    %eax
  103d59:	40                   	inc    %eax
  103d5a:	10 00                	adc    %al,(%eax)
  103d5c:	48                   	dec    %eax
  103d5d:	40                   	inc    %eax
  103d5e:	10 00                	adc    %al,(%eax)
  103d60:	48                   	dec    %eax
  103d61:	40                   	inc    %eax
  103d62:	10 00                	adc    %al,(%eax)
  103d64:	48                   	dec    %eax
  103d65:	40                   	inc    %eax
  103d66:	10 00                	adc    %al,(%eax)
  103d68:	48                   	dec    %eax
  103d69:	40                   	inc    %eax
  103d6a:	10 00                	adc    %al,(%eax)
  103d6c:	48                   	dec    %eax
  103d6d:	40                   	inc    %eax
  103d6e:	10 00                	adc    %al,(%eax)
  103d70:	48                   	dec    %eax
  103d71:	40                   	inc    %eax
  103d72:	10 00                	adc    %al,(%eax)
  103d74:	48                   	dec    %eax
  103d75:	40                   	inc    %eax
  103d76:	10 00                	adc    %al,(%eax)
  103d78:	48                   	dec    %eax
  103d79:	40                   	inc    %eax
  103d7a:	10 00                	adc    %al,(%eax)
  103d7c:	48                   	dec    %eax
  103d7d:	40                   	inc    %eax
  103d7e:	10 00                	adc    %al,(%eax)
  103d80:	48                   	dec    %eax
  103d81:	40                   	inc    %eax
  103d82:	10 00                	adc    %al,(%eax)
  103d84:	48                   	dec    %eax
  103d85:	40                   	inc    %eax
  103d86:	10 00                	adc    %al,(%eax)
  103d88:	48                   	dec    %eax
  103d89:	40                   	inc    %eax
  103d8a:	10 00                	adc    %al,(%eax)
  103d8c:	48                   	dec    %eax
  103d8d:	40                   	inc    %eax
  103d8e:	10 00                	adc    %al,(%eax)
  103d90:	48                   	dec    %eax
  103d91:	40                   	inc    %eax
  103d92:	10 00                	adc    %al,(%eax)
  103d94:	48                   	dec    %eax
  103d95:	40                   	inc    %eax
  103d96:	10 00                	adc    %al,(%eax)
  103d98:	48                   	dec    %eax
  103d99:	40                   	inc    %eax
  103d9a:	10 00                	adc    %al,(%eax)
  103d9c:	48                   	dec    %eax
  103d9d:	40                   	inc    %eax
  103d9e:	10 00                	adc    %al,(%eax)
  103da0:	48                   	dec    %eax
  103da1:	40                   	inc    %eax
  103da2:	10 00                	adc    %al,(%eax)
  103da4:	28 40 10             	sub    %al,0x10(%eax)
  103da7:	00 48 40             	add    %cl,0x40(%eax)
  103daa:	10 00                	adc    %al,(%eax)
  103dac:	48                   	dec    %eax
  103dad:	40                   	inc    %eax
  103dae:	10 00                	adc    %al,(%eax)
  103db0:	48                   	dec    %eax
  103db1:	40                   	inc    %eax
  103db2:	10 00                	adc    %al,(%eax)
  103db4:	48                   	dec    %eax
  103db5:	40                   	inc    %eax
  103db6:	10 00                	adc    %al,(%eax)
  103db8:	48                   	dec    %eax
  103db9:	40                   	inc    %eax
  103dba:	10 00                	adc    %al,(%eax)
  103dbc:	48                   	dec    %eax
  103dbd:	40                   	inc    %eax
  103dbe:	10 00                	adc    %al,(%eax)
  103dc0:	48                   	dec    %eax
  103dc1:	40                   	inc    %eax
  103dc2:	10 00                	adc    %al,(%eax)
  103dc4:	48                   	dec    %eax
  103dc5:	40                   	inc    %eax
  103dc6:	10 00                	adc    %al,(%eax)
  103dc8:	48                   	dec    %eax
  103dc9:	40                   	inc    %eax
  103dca:	10 00                	adc    %al,(%eax)
  103dcc:	48                   	dec    %eax
  103dcd:	40                   	inc    %eax
  103dce:	10 00                	adc    %al,(%eax)
  103dd0:	48                   	dec    %eax
  103dd1:	40                   	inc    %eax
  103dd2:	10 00                	adc    %al,(%eax)
  103dd4:	48                   	dec    %eax
  103dd5:	40                   	inc    %eax
  103dd6:	10 00                	adc    %al,(%eax)
  103dd8:	18 40 10             	sbb    %al,0x10(%eax)
  103ddb:	00 48 40             	add    %cl,0x40(%eax)
  103dde:	10 00                	adc    %al,(%eax)
  103de0:	48                   	dec    %eax
  103de1:	40                   	inc    %eax
  103de2:	10 00                	adc    %al,(%eax)
  103de4:	48                   	dec    %eax
  103de5:	40                   	inc    %eax
  103de6:	10 00                	adc    %al,(%eax)
  103de8:	48                   	dec    %eax
  103de9:	40                   	inc    %eax
  103dea:	10 00                	adc    %al,(%eax)
  103dec:	48                   	dec    %eax
  103ded:	40                   	inc    %eax
  103dee:	10 00                	adc    %al,(%eax)
  103df0:	48                   	dec    %eax
  103df1:	40                   	inc    %eax
  103df2:	10 00                	adc    %al,(%eax)
  103df4:	48                   	dec    %eax
  103df5:	40                   	inc    %eax
  103df6:	10 00                	adc    %al,(%eax)
  103df8:	48                   	dec    %eax
  103df9:	40                   	inc    %eax
  103dfa:	10 00                	adc    %al,(%eax)
  103dfc:	48                   	dec    %eax
  103dfd:	40                   	inc    %eax
  103dfe:	10 00                	adc    %al,(%eax)
  103e00:	48                   	dec    %eax
  103e01:	40                   	inc    %eax
  103e02:	10 00                	adc    %al,(%eax)
  103e04:	48                   	dec    %eax
  103e05:	40                   	inc    %eax
  103e06:	10 00                	adc    %al,(%eax)
  103e08:	18 40 10             	sbb    %al,0x10(%eax)
  103e0b:	00 48 40             	add    %cl,0x40(%eax)
  103e0e:	10 00                	adc    %al,(%eax)
  103e10:	48                   	dec    %eax
  103e11:	40                   	inc    %eax
  103e12:	10 00                	adc    %al,(%eax)
  103e14:	48                   	dec    %eax
  103e15:	40                   	inc    %eax
  103e16:	10 00                	adc    %al,(%eax)
  103e18:	d0 3f                	sarb   (%edi)
  103e1a:	10 00                	adc    %al,(%eax)
  103e1c:	ec                   	in     (%dx),%al
  103e1d:	3a 10                	cmp    (%eax),%dl
  103e1f:	00 ec                	add    %ch,%ah
  103e21:	3a 10                	cmp    (%eax),%dl
  103e23:	00 ec                	add    %ch,%ah
  103e25:	3a 10                	cmp    (%eax),%dl
  103e27:	00 ec                	add    %ch,%ah
  103e29:	3a 10                	cmp    (%eax),%dl
  103e2b:	00 ec                	add    %ch,%ah
  103e2d:	3a 10                	cmp    (%eax),%dl
  103e2f:	00 ec                	add    %ch,%ah
  103e31:	3a 10                	cmp    (%eax),%dl
  103e33:	00 ec                	add    %ch,%ah
  103e35:	3a 10                	cmp    (%eax),%dl
  103e37:	00 ec                	add    %ch,%ah
  103e39:	3a 10                	cmp    (%eax),%dl
  103e3b:	00 ec                	add    %ch,%ah
  103e3d:	3a 10                	cmp    (%eax),%dl
  103e3f:	00 ec                	add    %ch,%ah
  103e41:	3a 10                	cmp    (%eax),%dl
  103e43:	00 ec                	add    %ch,%ah
  103e45:	3f                   	aas    
  103e46:	10 00                	adc    %al,(%eax)
  103e48:	48                   	dec    %eax
  103e49:	40                   	inc    %eax
  103e4a:	10 00                	adc    %al,(%eax)
  103e4c:	48                   	dec    %eax
  103e4d:	40                   	inc    %eax
  103e4e:	10 00                	adc    %al,(%eax)
  103e50:	48                   	dec    %eax
  103e51:	40                   	inc    %eax
  103e52:	10 00                	adc    %al,(%eax)
  103e54:	48                   	dec    %eax
  103e55:	40                   	inc    %eax
  103e56:	10 00                	adc    %al,(%eax)
  103e58:	48                   	dec    %eax
  103e59:	40                   	inc    %eax
  103e5a:	10 00                	adc    %al,(%eax)
  103e5c:	48                   	dec    %eax
  103e5d:	40                   	inc    %eax
  103e5e:	10 00                	adc    %al,(%eax)
  103e60:	48                   	dec    %eax
  103e61:	40                   	inc    %eax
  103e62:	10 00                	adc    %al,(%eax)
  103e64:	48                   	dec    %eax
  103e65:	40                   	inc    %eax
  103e66:	10 00                	adc    %al,(%eax)
  103e68:	48                   	dec    %eax
  103e69:	40                   	inc    %eax
  103e6a:	10 00                	adc    %al,(%eax)
  103e6c:	48                   	dec    %eax
  103e6d:	40                   	inc    %eax
  103e6e:	10 00                	adc    %al,(%eax)
  103e70:	48                   	dec    %eax
  103e71:	40                   	inc    %eax
  103e72:	10 00                	adc    %al,(%eax)
  103e74:	48                   	dec    %eax
  103e75:	40                   	inc    %eax
  103e76:	10 00                	adc    %al,(%eax)
  103e78:	48                   	dec    %eax
  103e79:	40                   	inc    %eax
  103e7a:	10 00                	adc    %al,(%eax)
  103e7c:	48                   	dec    %eax
  103e7d:	40                   	inc    %eax
  103e7e:	10 00                	adc    %al,(%eax)
  103e80:	48                   	dec    %eax
  103e81:	40                   	inc    %eax
  103e82:	10 00                	adc    %al,(%eax)
  103e84:	48                   	dec    %eax
  103e85:	40                   	inc    %eax
  103e86:	10 00                	adc    %al,(%eax)
  103e88:	48                   	dec    %eax
  103e89:	40                   	inc    %eax
  103e8a:	10 00                	adc    %al,(%eax)
  103e8c:	ec                   	in     (%dx),%al
  103e8d:	3a 10                	cmp    (%eax),%dl
  103e8f:	00 ec                	add    %ch,%ah
  103e91:	3a 10                	cmp    (%eax),%dl
  103e93:	00 48 40             	add    %cl,0x40(%eax)
  103e96:	10 00                	adc    %al,(%eax)
  103e98:	48                   	dec    %eax
  103e99:	40                   	inc    %eax
  103e9a:	10 00                	adc    %al,(%eax)
  103e9c:	48                   	dec    %eax
  103e9d:	40                   	inc    %eax
  103e9e:	10 00                	adc    %al,(%eax)
  103ea0:	48                   	dec    %eax
  103ea1:	40                   	inc    %eax
  103ea2:	10 00                	adc    %al,(%eax)
  103ea4:	48                   	dec    %eax
  103ea5:	40                   	inc    %eax
  103ea6:	10 00                	adc    %al,(%eax)
  103ea8:	48                   	dec    %eax
  103ea9:	40                   	inc    %eax
  103eaa:	10 00                	adc    %al,(%eax)
  103eac:	48                   	dec    %eax
  103ead:	40                   	inc    %eax
  103eae:	10 00                	adc    %al,(%eax)
  103eb0:	ec                   	in     (%dx),%al
  103eb1:	3a 10                	cmp    (%eax),%dl
  103eb3:	00 48 40             	add    %cl,0x40(%eax)
  103eb6:	10 00                	adc    %al,(%eax)
  103eb8:	48                   	dec    %eax
  103eb9:	40                   	inc    %eax
  103eba:	10 00                	adc    %al,(%eax)
  103ebc:	48                   	dec    %eax
  103ebd:	40                   	inc    %eax
  103ebe:	10 00                	adc    %al,(%eax)
  103ec0:	48                   	dec    %eax
  103ec1:	40                   	inc    %eax
  103ec2:	10 00                	adc    %al,(%eax)
  103ec4:	48                   	dec    %eax
  103ec5:	40                   	inc    %eax
  103ec6:	10 00                	adc    %al,(%eax)
  103ec8:	48                   	dec    %eax
  103ec9:	40                   	inc    %eax
  103eca:	10 00                	adc    %al,(%eax)
  103ecc:	48                   	dec    %eax
  103ecd:	40                   	inc    %eax
  103ece:	10 00                	adc    %al,(%eax)
  103ed0:	48                   	dec    %eax
  103ed1:	40                   	inc    %eax
  103ed2:	10 00                	adc    %al,(%eax)
  103ed4:	48                   	dec    %eax
  103ed5:	40                   	inc    %eax
  103ed6:	10 00                	adc    %al,(%eax)
  103ed8:	48                   	dec    %eax
  103ed9:	40                   	inc    %eax
  103eda:	10 00                	adc    %al,(%eax)
  103edc:	48                   	dec    %eax
  103edd:	40                   	inc    %eax
  103ede:	10 00                	adc    %al,(%eax)
  103ee0:	48                   	dec    %eax
  103ee1:	40                   	inc    %eax
  103ee2:	10 00                	adc    %al,(%eax)
  103ee4:	48                   	dec    %eax
  103ee5:	40                   	inc    %eax
  103ee6:	10 00                	adc    %al,(%eax)
  103ee8:	48                   	dec    %eax
  103ee9:	40                   	inc    %eax
  103eea:	10 00                	adc    %al,(%eax)
  103eec:	48                   	dec    %eax
  103eed:	40                   	inc    %eax
  103eee:	10 00                	adc    %al,(%eax)
  103ef0:	48                   	dec    %eax
  103ef1:	40                   	inc    %eax
  103ef2:	10 00                	adc    %al,(%eax)
  103ef4:	48                   	dec    %eax
  103ef5:	40                   	inc    %eax
  103ef6:	10 00                	adc    %al,(%eax)
  103ef8:	48                   	dec    %eax
  103ef9:	40                   	inc    %eax
  103efa:	10 00                	adc    %al,(%eax)
  103efc:	48                   	dec    %eax
  103efd:	40                   	inc    %eax
  103efe:	10 00                	adc    %al,(%eax)
  103f00:	48                   	dec    %eax
  103f01:	40                   	inc    %eax
  103f02:	10 00                	adc    %al,(%eax)
  103f04:	48                   	dec    %eax
  103f05:	40                   	inc    %eax
  103f06:	10 00                	adc    %al,(%eax)
  103f08:	48                   	dec    %eax
  103f09:	40                   	inc    %eax
  103f0a:	10 00                	adc    %al,(%eax)
  103f0c:	48                   	dec    %eax
  103f0d:	40                   	inc    %eax
  103f0e:	10 00                	adc    %al,(%eax)
  103f10:	48                   	dec    %eax
  103f11:	40                   	inc    %eax
  103f12:	10 00                	adc    %al,(%eax)
  103f14:	48                   	dec    %eax
  103f15:	40                   	inc    %eax
  103f16:	10 00                	adc    %al,(%eax)
  103f18:	48                   	dec    %eax
  103f19:	40                   	inc    %eax
  103f1a:	10 00                	adc    %al,(%eax)
  103f1c:	48                   	dec    %eax
  103f1d:	40                   	inc    %eax
  103f1e:	10 00                	adc    %al,(%eax)
  103f20:	48                   	dec    %eax
  103f21:	40                   	inc    %eax
  103f22:	10 00                	adc    %al,(%eax)
  103f24:	48                   	dec    %eax
  103f25:	40                   	inc    %eax
  103f26:	10 00                	adc    %al,(%eax)
  103f28:	48                   	dec    %eax
  103f29:	40                   	inc    %eax
  103f2a:	10 00                	adc    %al,(%eax)
  103f2c:	38 40 10             	cmp    %al,0x10(%eax)
  103f2f:	00 c7                	add    %al,%bh
  103f31:	05 40 5a 10 00       	add    $0x105a40,%eax
  103f36:	01 00                	add    %eax,(%eax)
  103f38:	00 00                	add    %al,(%eax)
  103f3a:	e9 ad fb ff ff       	jmp    103aec <cons_kbhit+0x24>
  103f3f:	90                   	nop
  103f40:	e8 83 07 00 00       	call   1046c8 <_kbd_f1>
  103f45:	e9 a2 fb ff ff       	jmp    103aec <cons_kbhit+0x24>
  103f4a:	8d 36                	lea    (%esi),%esi
  103f4c:	e8 7f 07 00 00       	call   1046d0 <_kbd_f2>
  103f51:	e9 96 fb ff ff       	jmp    103aec <cons_kbhit+0x24>
  103f56:	8d 36                	lea    (%esi),%esi
  103f58:	e8 7b 07 00 00       	call   1046d8 <_kbd_f3>
  103f5d:	e9 8a fb ff ff       	jmp    103aec <cons_kbhit+0x24>
  103f62:	8d 36                	lea    (%esi),%esi
  103f64:	e8 77 07 00 00       	call   1046e0 <_kbd_f4>
  103f69:	e9 7e fb ff ff       	jmp    103aec <cons_kbhit+0x24>
  103f6e:	8d 36                	lea    (%esi),%esi
  103f70:	e8 73 07 00 00       	call   1046e8 <_kbd_f5>
  103f75:	e9 72 fb ff ff       	jmp    103aec <cons_kbhit+0x24>
  103f7a:	8d 36                	lea    (%esi),%esi
  103f7c:	e8 6f 07 00 00       	call   1046f0 <_kbd_f6>
  103f81:	e9 66 fb ff ff       	jmp    103aec <cons_kbhit+0x24>
  103f86:	8d 36                	lea    (%esi),%esi
  103f88:	e8 6b 07 00 00       	call   1046f8 <_kbd_f7>
  103f8d:	e9 5a fb ff ff       	jmp    103aec <cons_kbhit+0x24>
  103f92:	8d 36                	lea    (%esi),%esi
  103f94:	e8 67 07 00 00       	call   104700 <_kbd_f8>
  103f99:	e9 4e fb ff ff       	jmp    103aec <cons_kbhit+0x24>
  103f9e:	8d 36                	lea    (%esi),%esi
  103fa0:	e8 63 07 00 00       	call   104708 <_kbd_f9>
  103fa5:	e9 42 fb ff ff       	jmp    103aec <cons_kbhit+0x24>
  103faa:	8d 36                	lea    (%esi),%esi
  103fac:	e8 ff 06 00 00       	call   1046b0 <_kbd_f10>
  103fb1:	e9 36 fb ff ff       	jmp    103aec <cons_kbhit+0x24>
  103fb6:	8d 36                	lea    (%esi),%esi
  103fb8:	e8 fb 06 00 00       	call   1046b8 <_kbd_f11>
  103fbd:	e9 2a fb ff ff       	jmp    103aec <cons_kbhit+0x24>
  103fc2:	8d 36                	lea    (%esi),%esi
  103fc4:	e8 f7 06 00 00       	call   1046c0 <_kbd_f12>
  103fc9:	e9 1e fb ff ff       	jmp    103aec <cons_kbhit+0x24>
  103fce:	8d 36                	lea    (%esi),%esi
  103fd0:	83 3d 4c 5a 10 00 00 	cmpl   $0x0,0x105a4c
  103fd7:	0f 94 c0             	sete   %al
  103fda:	25 ff 00 00 00       	and    $0xff,%eax
  103fdf:	a3 4c 5a 10 00       	mov    %eax,0x105a4c
  103fe4:	e9 03 fb ff ff       	jmp    103aec <cons_kbhit+0x24>
  103fe9:	8d 76 00             	lea    0x0(%esi),%esi
  103fec:	83 3d 48 5a 10 00 00 	cmpl   $0x0,0x105a48
  103ff3:	0f 94 c0             	sete   %al
  103ff6:	25 ff 00 00 00       	and    $0xff,%eax
  103ffb:	a3 48 5a 10 00       	mov    %eax,0x105a48
  104000:	e9 e7 fa ff ff       	jmp    103aec <cons_kbhit+0x24>
  104005:	8d 76 00             	lea    0x0(%esi),%esi
  104008:	c7 05 44 5a 10 00 01 	movl   $0x1,0x105a44
  10400f:	00 00 00 
  104012:	e9 d5 fa ff ff       	jmp    103aec <cons_kbhit+0x24>
  104017:	90                   	nop
  104018:	c7 05 40 5a 10 00 00 	movl   $0x0,0x105a40
  10401f:	00 00 00 
  104022:	e9 c5 fa ff ff       	jmp    103aec <cons_kbhit+0x24>
  104027:	90                   	nop
  104028:	c7 05 44 5a 10 00 00 	movl   $0x0,0x105a44
  10402f:	00 00 00 
  104032:	e9 b5 fa ff ff       	jmp    103aec <cons_kbhit+0x24>
  104037:	90                   	nop
  104038:	6a 21                	push   $0x21
  10403a:	e8 91 f8 ff ff       	call   1038d0 <cons_putchar>
  10403f:	83 c4 04             	add    $0x4,%esp
  104042:	e9 a5 fa ff ff       	jmp    103aec <cons_kbhit+0x24>
  104047:	90                   	nop
  104048:	84 c9                	test   %cl,%cl
  10404a:	0f 8c 9c fa ff ff    	jl     103aec <cons_kbhit+0x24>
  104050:	80 f9 39             	cmp    $0x39,%cl
  104053:	0f 87 93 fa ff ff    	ja     103aec <cons_kbhit+0x24>
  104059:	80 e1 7f             	and    $0x7f,%cl
  10405c:	83 3d 40 5a 10 00 00 	cmpl   $0x0,0x105a40
  104063:	74 0b                	je     104070 <cons_kbhit+0x5a8>
  104065:	0f b6 c1             	movzbl %cl,%eax
  104068:	8a 90 ec 59 10 00    	mov    0x1059ec(%eax),%dl
  10406e:	eb 09                	jmp    104079 <cons_kbhit+0x5b1>
  104070:	0f b6 c1             	movzbl %cl,%eax
  104073:	8a 90 98 59 10 00    	mov    0x105998(%eax),%dl
  104079:	80 fa 80             	cmp    $0x80,%dl
  10407c:	0f 84 6a fa ff ff    	je     103aec <cons_kbhit+0x24>
  104082:	83 3d 4c 5a 10 00 00 	cmpl   $0x0,0x105a4c
  104089:	74 14                	je     10409f <cons_kbhit+0x5d7>
  10408b:	80 fa 7f             	cmp    $0x7f,%dl
  10408e:	77 0f                	ja     10409f <cons_kbhit+0x5d7>
  104090:	0f b6 c2             	movzbl %dl,%eax
  104093:	f6 80 e4 56 10 00 03 	testb  $0x3,0x1056e4(%eax)
  10409a:	74 03                	je     10409f <cons_kbhit+0x5d7>
  10409c:	80 f2 20             	xor    $0x20,%dl
  10409f:	83 3d 44 5a 10 00 00 	cmpl   $0x0,0x105a44
  1040a6:	74 0c                	je     1040b4 <cons_kbhit+0x5ec>
  1040a8:	0f b6 c1             	movzbl %cl,%eax
  1040ab:	8a 90 98 59 10 00    	mov    0x105998(%eax),%dl
  1040b1:	80 e2 1f             	and    $0x1f,%dl
  1040b4:	0f b6 d2             	movzbl %dl,%edx
  1040b7:	89 15 94 5a 10 00    	mov    %edx,0x105a94
  1040bd:	8d 45 fc             	lea    -0x4(%ebp),%eax
  1040c0:	50                   	push   %eax
  1040c1:	e8 ee 07 00 00       	call   1048b4 <splx>
  1040c6:	a1 94 5a 10 00       	mov    0x105a94,%eax
  1040cb:	8b 5d f8             	mov    -0x8(%ebp),%ebx
  1040ce:	c9                   	leave  
  1040cf:	c3                   	ret    

001040d0 <cons_getchar>:
  1040d0:	55                   	push   %ebp
  1040d1:	89 e5                	mov    %esp,%ebp
  1040d3:	90                   	nop
  1040d4:	e8 ef f9 ff ff       	call   103ac8 <cons_kbhit>
  1040d9:	85 c0                	test   %eax,%eax
  1040db:	75 07                	jne    1040e4 <cons_getchar+0x14>
  1040dd:	e4 80                	in     $0x80,%al
  1040df:	eb f3                	jmp    1040d4 <cons_getchar+0x4>
  1040e1:	8d 76 00             	lea    0x0(%esi),%esi
  1040e4:	a1 94 5a 10 00       	mov    0x105a94,%eax
  1040e9:	c7 05 94 5a 10 00 00 	movl   $0x0,0x105a94
  1040f0:	00 00 00 
  1040f3:	c9                   	leave  
  1040f4:	c3                   	ret    
  1040f5:	8d 76 00             	lea    0x0(%esi),%esi

001040f8 <init_cons>:
  1040f8:	55                   	push   %ebp
  1040f9:	89 e5                	mov    %esp,%ebp
  1040fb:	56                   	push   %esi
  1040fc:	53                   	push   %ebx
  1040fd:	a1 8c 59 10 00       	mov    0x10598c,%eax
  104102:	a3 50 4f 12 00       	mov    %eax,0x124f50
  104107:	83 3d a4 5a 10 00 00 	cmpl   $0x0,0x105aa4
  10410e:	0f 94 c0             	sete   %al
  104111:	88 05 54 4f 12 00    	mov    %al,0x124f54
  104117:	c6 05 4c 4f 12 00 00 	movb   $0x0,0x124f4c
  10411e:	c7 05 94 59 10 00 00 	movl   $0x700,0x105994
  104125:	07 00 00 
  104128:	6a 61                	push   $0x61
  10412a:	e8 19 05 00 00       	call   104648 <inportb>
  10412f:	89 c6                	mov    %eax,%esi
  104131:	89 f3                	mov    %esi,%ebx
  104133:	80 e3 7f             	and    $0x7f,%bl
  104136:	53                   	push   %ebx
  104137:	6a 61                	push   $0x61
  104139:	e8 12 05 00 00       	call   104650 <outportb>
  10413e:	e4 80                	in     $0x80,%al
  104140:	89 f0                	mov    %esi,%eax
  104142:	0c 80                	or     $0x80,%al
  104144:	50                   	push   %eax
  104145:	6a 61                	push   $0x61
  104147:	e8 04 05 00 00       	call   104650 <outportb>
  10414c:	e4 80                	in     $0x80,%al
  10414e:	53                   	push   %ebx
  10414f:	6a 61                	push   $0x61
  104151:	e8 fa 04 00 00       	call   104650 <outportb>
  104156:	e4 80                	in     $0x80,%al
  104158:	c7 05 94 5a 10 00 00 	movl   $0x0,0x105a94
  10415f:	00 00 00 
  104162:	8d 65 f8             	lea    -0x8(%ebp),%esp
  104165:	5b                   	pop    %ebx
  104166:	5e                   	pop    %esi
  104167:	c9                   	leave  
  104168:	c3                   	ret    
  104169:	90                   	nop
  10416a:	90                   	nop
  10416b:	90                   	nop

0010416c <cons_putstr>:
  10416c:	55                   	push   %ebp
  10416d:	89 e5                	mov    %esp,%ebp
  10416f:	53                   	push   %ebx
  104170:	8b 5d 08             	mov    0x8(%ebp),%ebx
  104173:	80 3b 00             	cmpb   $0x0,(%ebx)
  104176:	74 12                	je     10418a <cons_putstr+0x1e>
  104178:	0f be 03             	movsbl (%ebx),%eax
  10417b:	50                   	push   %eax
  10417c:	43                   	inc    %ebx
  10417d:	e8 4e f7 ff ff       	call   1038d0 <cons_putchar>
  104182:	83 c4 04             	add    $0x4,%esp
  104185:	80 3b 00             	cmpb   $0x0,(%ebx)
  104188:	75 ee                	jne    104178 <cons_putstr+0xc>
  10418a:	8b 5d fc             	mov    -0x4(%ebp),%ebx
  10418d:	c9                   	leave  
  10418e:	c3                   	ret    
  10418f:	90                   	nop

00104190 <cons_getstr>:
  104190:	55                   	push   %ebp
  104191:	89 e5                	mov    %esp,%ebp
  104193:	57                   	push   %edi
  104194:	56                   	push   %esi
  104195:	53                   	push   %ebx
  104196:	8b 75 08             	mov    0x8(%ebp),%esi
  104199:	8b 7d 0c             	mov    0xc(%ebp),%edi
  10419c:	4f                   	dec    %edi
  10419d:	85 ff                	test   %edi,%edi
  10419f:	7e 47                	jle    1041e8 <cons_getstr+0x58>
  1041a1:	e8 2a ff ff ff       	call   1040d0 <cons_getchar>
  1041a6:	89 c3                	mov    %eax,%ebx
  1041a8:	83 fb 0d             	cmp    $0xd,%ebx
  1041ab:	74 3b                	je     1041e8 <cons_getstr+0x58>
  1041ad:	83 fb 0a             	cmp    $0xa,%ebx
  1041b0:	74 36                	je     1041e8 <cons_getstr+0x58>
  1041b2:	83 fb 08             	cmp    $0x8,%ebx
  1041b5:	75 1d                	jne    1041d4 <cons_getstr+0x44>
  1041b7:	39 75 08             	cmp    %esi,0x8(%ebp)
  1041ba:	74 e1                	je     10419d <cons_getstr+0xd>
  1041bc:	4e                   	dec    %esi
  1041bd:	47                   	inc    %edi
  1041be:	6a 08                	push   $0x8
  1041c0:	e8 0b f7 ff ff       	call   1038d0 <cons_putchar>
  1041c5:	6a 20                	push   $0x20
  1041c7:	e8 04 f7 ff ff       	call   1038d0 <cons_putchar>
  1041cc:	83 c4 08             	add    $0x8,%esp
  1041cf:	eb 09                	jmp    1041da <cons_getstr+0x4a>
  1041d1:	8d 76 00             	lea    0x0(%esi),%esi
  1041d4:	88 d8                	mov    %bl,%al
  1041d6:	88 06                	mov    %al,(%esi)
  1041d8:	46                   	inc    %esi
  1041d9:	4f                   	dec    %edi
  1041da:	53                   	push   %ebx
  1041db:	e8 f0 f6 ff ff       	call   1038d0 <cons_putchar>
  1041e0:	c6 06 00             	movb   $0x0,(%esi)
  1041e3:	83 c4 04             	add    $0x4,%esp
  1041e6:	eb b5                	jmp    10419d <cons_getstr+0xd>
  1041e8:	6a 0a                	push   $0xa
  1041ea:	e8 e1 f6 ff ff       	call   1038d0 <cons_putchar>
  1041ef:	8b 45 08             	mov    0x8(%ebp),%eax
  1041f2:	8d 65 f4             	lea    -0xc(%ebp),%esp
  1041f5:	5b                   	pop    %ebx
  1041f6:	5e                   	pop    %esi
  1041f7:	5f                   	pop    %edi
  1041f8:	c9                   	leave  
  1041f9:	c3                   	ret    
  1041fa:	90                   	nop
  1041fb:	90                   	nop

001041fc <my_putchar>:
  1041fc:	55                   	push   %ebp
  1041fd:	89 e5                	mov    %esp,%ebp
  1041ff:	ff 75 08             	pushl  0x8(%ebp)
  104202:	e8 c9 f6 ff ff       	call   1038d0 <cons_putchar>
  104207:	c9                   	leave  
  104208:	c3                   	ret    
  104209:	8d 76 00             	lea    0x0(%esi),%esi

0010420c <cons_printf>:
  10420c:	55                   	push   %ebp
  10420d:	89 e5                	mov    %esp,%ebp
  10420f:	83 ec 10             	sub    $0x10,%esp
  104212:	c6 45 fd 02          	movb   $0x2,-0x3(%ebp)
  104216:	c7 45 f8 fc 41 10 00 	movl   $0x1041fc,-0x8(%ebp)
  10421d:	c7 45 f4 ff 7f 00 00 	movl   $0x7fff,-0xc(%ebp)
  104224:	c7 45 f0 00 00 00 00 	movl   $0x0,-0x10(%ebp)
  10422b:	c6 45 fc 00          	movb   $0x0,-0x4(%ebp)
  10422f:	8d 55 0c             	lea    0xc(%ebp),%edx
  104232:	8d 45 f0             	lea    -0x10(%ebp),%eax
  104235:	50                   	push   %eax
  104236:	52                   	push   %edx
  104237:	ff 75 08             	pushl  0x8(%ebp)
  10423a:	e8 91 08 00 00       	call   104ad0 <_doprnt>
  10423f:	c9                   	leave  
  104240:	c3                   	ret    
  104241:	90                   	nop
  104242:	90                   	nop
  104243:	90                   	nop

00104244 <isxdigit>:
  104244:	55                   	push   %ebp
  104245:	89 e5                	mov    %esp,%ebp
  104247:	8b 55 08             	mov    0x8(%ebp),%edx
  10424a:	31 c9                	xor    %ecx,%ecx
  10424c:	f6 82 e4 56 10 00 04 	testb  $0x4,0x1056e4(%edx)
  104253:	75 10                	jne    104265 <isxdigit+0x21>
  104255:	8d 42 bf             	lea    -0x41(%edx),%eax
  104258:	83 f8 05             	cmp    $0x5,%eax
  10425b:	76 08                	jbe    104265 <isxdigit+0x21>
  10425d:	8d 42 9f             	lea    -0x61(%edx),%eax
  104260:	83 f8 05             	cmp    $0x5,%eax
  104263:	77 05                	ja     10426a <isxdigit+0x26>
  104265:	b9 01 00 00 00       	mov    $0x1,%ecx
  10426a:	89 c8                	mov    %ecx,%eax
  10426c:	c9                   	leave  
  10426d:	c3                   	ret    
  10426e:	90                   	nop
  10426f:	90                   	nop

00104270 <exit>:
  104270:	55                   	push   %ebp
  104271:	89 e5                	mov    %esp,%ebp
  104273:	53                   	push   %ebx
  104274:	8b 5d 08             	mov    0x8(%ebp),%ebx
  104277:	e8 e0 ce ff ff       	call   10115c <_run_dtors>
  10427c:	e8 63 11 00 00       	call   1053e4 <_cleanup>
  104281:	53                   	push   %ebx
  104282:	e8 15 00 00 00       	call   10429c <_exit>
  104287:	90                   	nop

00104288 <FlamingExit>:
  104288:	8d 05 6c 5a 10 00    	lea    0x105a6c,%eax
  10428e:	0f 01 18             	lidtl  (%eax)
  104291:	8b 2d 98 5a 10 00    	mov    0x105a98,%ebp
  104297:	c9                   	leave  
  104298:	c3                   	ret    
  104299:	90                   	nop
  10429a:	90                   	nop
  10429b:	90                   	nop

0010429c <_exit>:
  10429c:	55                   	push   %ebp
  10429d:	89 e5                	mov    %esp,%ebp
  10429f:	83 3d a4 5a 10 00 01 	cmpl   $0x1,0x105aa4
  1042a6:	75 05                	jne    1042ad <_exit+0x11>
  1042a8:	e8 26 f4 ff ff       	call   1036d3 <GDBexit>
  1042ad:	e8 d6 ff ff ff       	call   104288 <FlamingExit>
  1042b2:	c9                   	leave  
  1042b3:	c3                   	ret    

001042b4 <putstr>:
  1042b4:	55                   	push   %ebp
  1042b5:	89 e5                	mov    %esp,%ebp
  1042b7:	53                   	push   %ebx
  1042b8:	8b 5d 08             	mov    0x8(%ebp),%ebx
  1042bb:	80 3b 00             	cmpb   $0x0,(%ebx)
  1042be:	74 12                	je     1042d2 <putstr+0x1e>
  1042c0:	0f be 03             	movsbl (%ebx),%eax
  1042c3:	50                   	push   %eax
  1042c4:	43                   	inc    %ebx
  1042c5:	e8 9e 00 00 00       	call   104368 <putchar>
  1042ca:	83 c4 04             	add    $0x4,%esp
  1042cd:	80 3b 00             	cmpb   $0x0,(%ebx)
  1042d0:	75 ee                	jne    1042c0 <putstr+0xc>
  1042d2:	8b 5d fc             	mov    -0x4(%ebp),%ebx
  1042d5:	c9                   	leave  
  1042d6:	c3                   	ret    
  1042d7:	90                   	nop

001042d8 <println>:
  1042d8:	55                   	push   %ebp
  1042d9:	89 e5                	mov    %esp,%ebp
  1042db:	6a 0a                	push   $0xa
  1042dd:	e8 86 00 00 00       	call   104368 <putchar>
  1042e2:	c9                   	leave  
  1042e3:	c3                   	ret    

001042e4 <getstr>:
  1042e4:	55                   	push   %ebp
  1042e5:	89 e5                	mov    %esp,%ebp
  1042e7:	57                   	push   %edi
  1042e8:	56                   	push   %esi
  1042e9:	53                   	push   %ebx
  1042ea:	8b 75 08             	mov    0x8(%ebp),%esi
  1042ed:	8b 7d 0c             	mov    0xc(%ebp),%edi
  1042f0:	4f                   	dec    %edi
  1042f1:	85 ff                	test   %edi,%edi
  1042f3:	7e 57                	jle    10434c <getstr+0x68>
  1042f5:	e8 06 01 00 00       	call   104400 <getchar>
  1042fa:	89 c3                	mov    %eax,%ebx
  1042fc:	83 fb 0d             	cmp    $0xd,%ebx
  1042ff:	74 4b                	je     10434c <getstr+0x68>
  104301:	83 fb 0a             	cmp    $0xa,%ebx
  104304:	74 46                	je     10434c <getstr+0x68>
  104306:	85 db                	test   %ebx,%ebx
  104308:	74 42                	je     10434c <getstr+0x68>
  10430a:	83 fb 08             	cmp    $0x8,%ebx
  10430d:	75 1d                	jne    10432c <getstr+0x48>
  10430f:	39 75 08             	cmp    %esi,0x8(%ebp)
  104312:	74 dd                	je     1042f1 <getstr+0xd>
  104314:	4e                   	dec    %esi
  104315:	47                   	inc    %edi
  104316:	6a 08                	push   $0x8
  104318:	e8 4b 00 00 00       	call   104368 <putchar>
  10431d:	6a 20                	push   $0x20
  10431f:	e8 44 00 00 00       	call   104368 <putchar>
  104324:	83 c4 08             	add    $0x8,%esp
  104327:	eb 09                	jmp    104332 <getstr+0x4e>
  104329:	8d 76 00             	lea    0x0(%esi),%esi
  10432c:	88 d8                	mov    %bl,%al
  10432e:	88 06                	mov    %al,(%esi)
  104330:	46                   	inc    %esi
  104331:	4f                   	dec    %edi
  104332:	83 3d a4 5a 10 00 00 	cmpl   $0x0,0x105aa4
  104339:	7f 09                	jg     104344 <getstr+0x60>
  10433b:	53                   	push   %ebx
  10433c:	e8 27 00 00 00       	call   104368 <putchar>
  104341:	83 c4 04             	add    $0x4,%esp
  104344:	c6 06 00             	movb   $0x0,(%esi)
  104347:	eb a8                	jmp    1042f1 <getstr+0xd>
  104349:	8d 76 00             	lea    0x0(%esi),%esi
  10434c:	83 3d a4 5a 10 00 00 	cmpl   $0x0,0x105aa4
  104353:	7f 07                	jg     10435c <getstr+0x78>
  104355:	6a 0a                	push   $0xa
  104357:	e8 0c 00 00 00       	call   104368 <putchar>
  10435c:	8b 45 08             	mov    0x8(%ebp),%eax
  10435f:	8d 65 f4             	lea    -0xc(%ebp),%esp
  104362:	5b                   	pop    %ebx
  104363:	5e                   	pop    %esi
  104364:	5f                   	pop    %edi
  104365:	c9                   	leave  
  104366:	c3                   	ret    
  104367:	90                   	nop

00104368 <putchar>:
  104368:	55                   	push   %ebp
  104369:	89 e5                	mov    %esp,%ebp
  10436b:	83 ec 10             	sub    $0x10,%esp
  10436e:	53                   	push   %ebx
  10436f:	8b 5d 08             	mov    0x8(%ebp),%ebx
  104372:	8d 45 fc             	lea    -0x4(%ebp),%eax
  104375:	50                   	push   %eax
  104376:	e8 2d 05 00 00       	call   1048a8 <splhigh>
  10437b:	fa                   	cli    
  10437c:	83 c4 04             	add    $0x4,%esp
  10437f:	83 3d a4 5a 10 00 00 	cmpl   $0x0,0x105aa4
  104386:	7e 50                	jle    1043d8 <putchar+0x70>
  104388:	83 fb 0a             	cmp    $0xa,%ebx
  10438b:	75 17                	jne    1043a4 <putchar+0x3c>
  10438d:	a1 75 57 10 00       	mov    0x105775,%eax
  104392:	89 45 f0             	mov    %eax,-0x10(%ebp)
  104395:	66 a1 79 57 10 00    	mov    0x105779,%ax
  10439b:	66 89 45 f4          	mov    %ax,-0xc(%ebp)
  10439f:	eb 2c                	jmp    1043cd <putchar+0x65>
  1043a1:	8d 76 00             	lea    0x0(%esi),%esi
  1043a4:	c6 45 f0 4f          	movb   $0x4f,-0x10(%ebp)
  1043a8:	88 d8                	mov    %bl,%al
  1043aa:	c0 e8 04             	shr    $0x4,%al
  1043ad:	25 ff 00 00 00       	and    $0xff,%eax
  1043b2:	8a 80 64 57 10 00    	mov    0x105764(%eax),%al
  1043b8:	88 45 f1             	mov    %al,-0xf(%ebp)
  1043bb:	89 d8                	mov    %ebx,%eax
  1043bd:	83 e0 0f             	and    $0xf,%eax
  1043c0:	8a 80 64 57 10 00    	mov    0x105764(%eax),%al
  1043c6:	88 45 f2             	mov    %al,-0xe(%ebp)
  1043c9:	c6 45 f3 00          	movb   $0x0,-0xd(%ebp)
  1043cd:	8d 45 f0             	lea    -0x10(%ebp),%eax
  1043d0:	50                   	push   %eax
  1043d1:	e8 16 eb ff ff       	call   102eec <putpacket>
  1043d6:	eb 15                	jmp    1043ed <putchar+0x85>
  1043d8:	83 fb 0a             	cmp    $0xa,%ebx
  1043db:	75 0a                	jne    1043e7 <putchar+0x7f>
  1043dd:	6a 0d                	push   $0xd
  1043df:	e8 30 0f 00 00       	call   105314 <putDebugChar>
  1043e4:	83 c4 04             	add    $0x4,%esp
  1043e7:	53                   	push   %ebx
  1043e8:	e8 27 0f 00 00       	call   105314 <putDebugChar>
  1043ed:	83 c4 04             	add    $0x4,%esp
  1043f0:	8d 45 fc             	lea    -0x4(%ebp),%eax
  1043f3:	50                   	push   %eax
  1043f4:	e8 bb 04 00 00       	call   1048b4 <splx>
  1043f9:	8b 5d ec             	mov    -0x14(%ebp),%ebx
  1043fc:	c9                   	leave  
  1043fd:	c3                   	ret    
  1043fe:	8d 36                	lea    (%esi),%esi

00104400 <getchar>:
  104400:	55                   	push   %ebp
  104401:	89 e5                	mov    %esp,%ebp
  104403:	83 ec 04             	sub    $0x4,%esp
  104406:	83 3d a4 5a 10 00 00 	cmpl   $0x0,0x105aa4
  10440d:	7e 29                	jle    104438 <getchar+0x38>
  10440f:	68 7b 57 10 00       	push   $0x10577b
  104414:	e8 d3 ea ff ff       	call   102eec <putpacket>
  104419:	68 10 25 12 00       	push   $0x122510
  10441e:	e8 b5 e9 ff ff       	call   102dd8 <getpacket>
  104423:	6a 00                	push   $0x0
  104425:	6a 01                	push   $0x1
  104427:	8d 45 ff             	lea    -0x1(%ebp),%eax
  10442a:	50                   	push   %eax
  10442b:	68 10 25 12 00       	push   $0x122510
  104430:	e8 07 ec ff ff       	call   10303c <hex2mem>
  104435:	eb 09                	jmp    104440 <getchar+0x40>
  104437:	90                   	nop
  104438:	e8 af 0e 00 00       	call   1052ec <getDebugChar>
  10443d:	88 45 ff             	mov    %al,-0x1(%ebp)
  104440:	0f be 45 ff          	movsbl -0x1(%ebp),%eax
  104444:	c9                   	leave  
  104445:	c3                   	ret    
  104446:	90                   	nop
  104447:	90                   	nop

00104448 <get_idt_base>:
  104448:	55                   	push   %ebp
  104449:	89 e5                	mov    %esp,%ebp
  10444b:	83 ec 08             	sub    $0x8,%esp
  10444e:	8d 45 fa             	lea    -0x6(%ebp),%eax
  104451:	0f 01 08             	sidtl  (%eax)
  104454:	8b 45 fc             	mov    -0x4(%ebp),%eax
  104457:	c9                   	leave  
  104458:	c3                   	ret    
  104459:	90                   	nop
  10445a:	90                   	nop
  10445b:	90                   	nop

0010445c <fill_descriptor>:
  10445c:	55                   	push   %ebp
  10445d:	89 e5                	mov    %esp,%ebp
  10445f:	83 ec 08             	sub    $0x8,%esp
  104462:	56                   	push   %esi
  104463:	53                   	push   %ebx
  104464:	8b 55 08             	mov    0x8(%ebp),%edx
  104467:	8b 75 0c             	mov    0xc(%ebp),%esi
  10446a:	8b 4d 10             	mov    0x10(%ebp),%ecx
  10446d:	8a 5d 14             	mov    0x14(%ebp),%bl
  104470:	88 5d fc             	mov    %bl,-0x4(%ebp)
  104473:	8a 5d 18             	mov    0x18(%ebp),%bl
  104476:	88 5d f8             	mov    %bl,-0x8(%ebp)
  104479:	81 f9 ff ff 0f 00    	cmp    $0xfffff,%ecx
  10447f:	76 09                	jbe    10448a <fill_descriptor+0x2e>
  104481:	c1 e9 0c             	shr    $0xc,%ecx
  104484:	80 cb 08             	or     $0x8,%bl
  104487:	88 5d f8             	mov    %bl,-0x8(%ebp)
  10448a:	66 89 0a             	mov    %cx,(%edx)
  10448d:	66 89 72 02          	mov    %si,0x2(%edx)
  104491:	89 f0                	mov    %esi,%eax
  104493:	c1 e8 10             	shr    $0x10,%eax
  104496:	88 42 04             	mov    %al,0x4(%edx)
  104499:	8a 5d fc             	mov    -0x4(%ebp),%bl
  10449c:	80 cb 80             	or     $0x80,%bl
  10449f:	88 5a 05             	mov    %bl,0x5(%edx)
  1044a2:	89 c8                	mov    %ecx,%eax
  1044a4:	c1 e8 10             	shr    $0x10,%eax
  1044a7:	24 0f                	and    $0xf,%al
  1044a9:	80 62 06 f0          	andb   $0xf0,0x6(%edx)
  1044ad:	08 42 06             	or     %al,0x6(%edx)
  1044b0:	8a 45 f8             	mov    -0x8(%ebp),%al
  1044b3:	c0 e0 04             	shl    $0x4,%al
  1044b6:	80 62 06 0f          	andb   $0xf,0x6(%edx)
  1044ba:	08 42 06             	or     %al,0x6(%edx)
  1044bd:	89 f0                	mov    %esi,%eax
  1044bf:	c1 e8 18             	shr    $0x18,%eax
  1044c2:	88 42 07             	mov    %al,0x7(%edx)
  1044c5:	8d 65 f0             	lea    -0x10(%ebp),%esp
  1044c8:	5b                   	pop    %ebx
  1044c9:	5e                   	pop    %esi
  1044ca:	c9                   	leave  
  1044cb:	c3                   	ret    

001044cc <fill_descriptor_base>:
  1044cc:	55                   	push   %ebp
  1044cd:	89 e5                	mov    %esp,%ebp
  1044cf:	8b 45 08             	mov    0x8(%ebp),%eax
  1044d2:	8b 55 0c             	mov    0xc(%ebp),%edx
  1044d5:	66 89 50 02          	mov    %dx,0x2(%eax)
  1044d9:	89 d1                	mov    %edx,%ecx
  1044db:	c1 e9 10             	shr    $0x10,%ecx
  1044de:	88 48 04             	mov    %cl,0x4(%eax)
  1044e1:	c1 ea 18             	shr    $0x18,%edx
  1044e4:	88 50 07             	mov    %dl,0x7(%eax)
  1044e7:	c9                   	leave  
  1044e8:	c3                   	ret    
  1044e9:	8d 76 00             	lea    0x0(%esi),%esi

001044ec <fill_descriptor_limit>:
  1044ec:	55                   	push   %ebp
  1044ed:	89 e5                	mov    %esp,%ebp
  1044ef:	8b 55 08             	mov    0x8(%ebp),%edx
  1044f2:	8b 4d 0c             	mov    0xc(%ebp),%ecx
  1044f5:	81 f9 ff ff 0f 00    	cmp    $0xfffff,%ecx
  1044fb:	76 17                	jbe    104514 <fill_descriptor_limit+0x28>
  1044fd:	c1 e9 0c             	shr    $0xc,%ecx
  104500:	8a 42 06             	mov    0x6(%edx),%al
  104503:	c0 e8 04             	shr    $0x4,%al
  104506:	25 ff 00 00 00       	and    $0xff,%eax
  10450b:	0c 08                	or     $0x8,%al
  10450d:	c0 e0 04             	shl    $0x4,%al
  104510:	eb 07                	jmp    104519 <fill_descriptor_limit+0x2d>
  104512:	8d 36                	lea    (%esi),%esi
  104514:	8a 42 06             	mov    0x6(%edx),%al
  104517:	24 70                	and    $0x70,%al
  104519:	80 62 06 0f          	andb   $0xf,0x6(%edx)
  10451d:	08 42 06             	or     %al,0x6(%edx)
  104520:	66 89 0a             	mov    %cx,(%edx)
  104523:	89 c8                	mov    %ecx,%eax
  104525:	c1 e8 10             	shr    $0x10,%eax
  104528:	24 0f                	and    $0xf,%al
  10452a:	80 62 06 f0          	andb   $0xf0,0x6(%edx)
  10452e:	08 42 06             	or     %al,0x6(%edx)
  104531:	c9                   	leave  
  104532:	c3                   	ret    
  104533:	90                   	nop

00104534 <fill_gate>:
  104534:	55                   	push   %ebp
  104535:	89 e5                	mov    %esp,%ebp
  104537:	56                   	push   %esi
  104538:	53                   	push   %ebx
  104539:	8b 45 08             	mov    0x8(%ebp),%eax
  10453c:	8b 55 0c             	mov    0xc(%ebp),%edx
  10453f:	66 8b 75 10          	mov    0x10(%ebp),%si
  104543:	66 89 70 02          	mov    %si,0x2(%eax)
  104547:	8a 5d 14             	mov    0x14(%ebp),%bl
  10454a:	8a 4d 18             	mov    0x18(%ebp),%cl
  10454d:	66 89 10             	mov    %dx,(%eax)
  104550:	88 48 04             	mov    %cl,0x4(%eax)
  104553:	80 cb 80             	or     $0x80,%bl
  104556:	88 58 05             	mov    %bl,0x5(%eax)
  104559:	c1 ea 10             	shr    $0x10,%edx
  10455c:	66 89 50 06          	mov    %dx,0x6(%eax)
  104560:	8d 65 f8             	lea    -0x8(%ebp),%esp
  104563:	5b                   	pop    %ebx
  104564:	5e                   	pop    %esi
  104565:	c9                   	leave  
  104566:	c3                   	ret    
  104567:	90                   	nop

00104568 <get_eflags>:
  104568:	55                   	push   %ebp
  104569:	89 e5                	mov    %esp,%ebp
  10456b:	eb 00                	jmp    10456d <get_eflags+0x5>
  10456d:	eb 00                	jmp    10456f <get_eflags+0x7>
  10456f:	eb 00                	jmp    104571 <get_eflags+0x9>
  104571:	9c                   	pushf  
  104572:	eb 00                	jmp    104574 <get_eflags+0xc>
  104574:	eb 00                	jmp    104576 <get_eflags+0xe>
  104576:	eb 00                	jmp    104578 <get_eflags+0x10>
  104578:	eb 00                	jmp    10457a <get_eflags+0x12>
  10457a:	58                   	pop    %eax
  10457b:	c9                   	leave  
  10457c:	c3                   	ret    
  10457d:	8d 76 00             	lea    0x0(%esi),%esi

00104580 <set_eflags>:
  104580:	55                   	push   %ebp
  104581:	89 e5                	mov    %esp,%ebp
  104583:	8b 45 08             	mov    0x8(%ebp),%eax
  104586:	50                   	push   %eax
  104587:	eb 00                	jmp    104589 <set_eflags+0x9>
  104589:	eb 00                	jmp    10458b <set_eflags+0xb>
  10458b:	eb 00                	jmp    10458d <set_eflags+0xd>
  10458d:	9d                   	popf   
  10458e:	eb 00                	jmp    104590 <set_eflags+0x10>
  104590:	eb 00                	jmp    104592 <set_eflags+0x12>
  104592:	eb 00                	jmp    104594 <set_eflags+0x14>
  104594:	c9                   	leave  
  104595:	c3                   	ret    
  104596:	8d 36                	lea    (%esi),%esi

00104598 <get_cs>:
  104598:	55                   	push   %ebp
  104599:	89 e5                	mov    %esp,%ebp
  10459b:	66 8c c8             	mov    %cs,%ax
  10459e:	25 ff ff 00 00       	and    $0xffff,%eax
  1045a3:	c9                   	leave  
  1045a4:	c3                   	ret    
  1045a5:	8d 76 00             	lea    0x0(%esi),%esi

001045a8 <get_ds>:
  1045a8:	55                   	push   %ebp
  1045a9:	89 e5                	mov    %esp,%ebp
  1045ab:	66 8c d8             	mov    %ds,%ax
  1045ae:	25 ff ff 00 00       	and    $0xffff,%eax
  1045b3:	c9                   	leave  
  1045b4:	c3                   	ret    
  1045b5:	8d 76 00             	lea    0x0(%esi),%esi

001045b8 <set_ds>:
  1045b8:	55                   	push   %ebp
  1045b9:	89 e5                	mov    %esp,%ebp
  1045bb:	66 8b 45 08          	mov    0x8(%ebp),%ax
  1045bf:	66 8e d8             	mov    %ax,%ds
  1045c2:	c9                   	leave  
  1045c3:	c3                   	ret    

001045c4 <get_es>:
  1045c4:	55                   	push   %ebp
  1045c5:	89 e5                	mov    %esp,%ebp
  1045c7:	66 8c c0             	mov    %es,%ax
  1045ca:	25 ff ff 00 00       	and    $0xffff,%eax
  1045cf:	c9                   	leave  
  1045d0:	c3                   	ret    
  1045d1:	8d 76 00             	lea    0x0(%esi),%esi

001045d4 <set_es>:
  1045d4:	55                   	push   %ebp
  1045d5:	89 e5                	mov    %esp,%ebp
  1045d7:	66 8b 45 08          	mov    0x8(%ebp),%ax
  1045db:	66 8e c0             	mov    %ax,%es
  1045de:	c9                   	leave  
  1045df:	c3                   	ret    

001045e0 <get_fs>:
  1045e0:	55                   	push   %ebp
  1045e1:	89 e5                	mov    %esp,%ebp
  1045e3:	66 8c e0             	mov    %fs,%ax
  1045e6:	25 ff ff 00 00       	and    $0xffff,%eax
  1045eb:	c9                   	leave  
  1045ec:	c3                   	ret    
  1045ed:	8d 76 00             	lea    0x0(%esi),%esi

001045f0 <set_fs>:
  1045f0:	55                   	push   %ebp
  1045f1:	89 e5                	mov    %esp,%ebp
  1045f3:	66 8b 45 08          	mov    0x8(%ebp),%ax
  1045f7:	66 8e e0             	mov    %ax,%fs
  1045fa:	c9                   	leave  
  1045fb:	c3                   	ret    

001045fc <get_gs>:
  1045fc:	55                   	push   %ebp
  1045fd:	89 e5                	mov    %esp,%ebp
  1045ff:	66 8c e8             	mov    %gs,%ax
  104602:	25 ff ff 00 00       	and    $0xffff,%eax
  104607:	c9                   	leave  
  104608:	c3                   	ret    
  104609:	8d 76 00             	lea    0x0(%esi),%esi

0010460c <set_gs>:
  10460c:	55                   	push   %ebp
  10460d:	89 e5                	mov    %esp,%ebp
  10460f:	66 8b 45 08          	mov    0x8(%ebp),%ax
  104613:	66 8e e8             	mov    %ax,%gs
  104616:	c9                   	leave  
  104617:	c3                   	ret    

00104618 <get_ss>:
  104618:	55                   	push   %ebp
  104619:	89 e5                	mov    %esp,%ebp
  10461b:	66 8c d0             	mov    %ss,%ax
  10461e:	25 ff ff 00 00       	and    $0xffff,%eax
  104623:	c9                   	leave  
  104624:	c3                   	ret    
  104625:	8d 76 00             	lea    0x0(%esi),%esi

00104628 <get_msw>:
  104628:	55                   	push   %ebp
  104629:	89 e5                	mov    %esp,%ebp
  10462b:	66 0f 01 e0          	smsw   %ax
  10462f:	25 ff ff 00 00       	and    $0xffff,%eax
  104634:	c9                   	leave  
  104635:	c3                   	ret    
  104636:	8d 36                	lea    (%esi),%esi

00104638 <ffs>:
  104638:	55                   	push   %ebp
  104639:	89 e5                	mov    %esp,%ebp
  10463b:	8b 45 08             	mov    0x8(%ebp),%eax
  10463e:	85 c0                	test   %eax,%eax
  104640:	74 04                	je     104646 <ffs+0xe>
  104642:	0f bc c0             	bsf    %eax,%eax
  104645:	40                   	inc    %eax
  104646:	c9                   	leave  
  104647:	c3                   	ret    

00104648 <inportb>:
  104648:	8b 54 24 04          	mov    0x4(%esp),%edx
  10464c:	31 c0                	xor    %eax,%eax
  10464e:	ec                   	in     (%dx),%al
  10464f:	c3                   	ret    

00104650 <outportb>:
  104650:	8b 54 24 04          	mov    0x4(%esp),%edx
  104654:	8b 44 24 08          	mov    0x8(%esp),%eax
  104658:	ee                   	out    %al,(%dx)
  104659:	c3                   	ret    
  10465a:	8d 36                	lea    (%esi),%esi

0010465c <inportw>:
  10465c:	8b 54 24 04          	mov    0x4(%esp),%edx
  104660:	31 c0                	xor    %eax,%eax
  104662:	66 ed                	in     (%dx),%ax
  104664:	c3                   	ret    
  104665:	8d 76 00             	lea    0x0(%esi),%esi

00104668 <outportw>:
  104668:	8b 54 24 04          	mov    0x4(%esp),%edx
  10466c:	8b 44 24 08          	mov    0x8(%esp),%eax
  104670:	66 ef                	out    %ax,(%dx)
  104672:	c3                   	ret    
  104673:	90                   	nop

00104674 <inportl>:
  104674:	8b 54 24 04          	mov    0x4(%esp),%edx
  104678:	31 c0                	xor    %eax,%eax
  10467a:	ed                   	in     (%dx),%eax
  10467b:	c3                   	ret    

0010467c <outportl>:
  10467c:	8b 54 24 04          	mov    0x4(%esp),%edx
  104680:	8b 44 24 08          	mov    0x8(%esp),%eax
  104684:	ef                   	out    %eax,(%dx)
  104685:	c3                   	ret    
  104686:	8d 36                	lea    (%esi),%esi

00104688 <repinsw>:
  104688:	57                   	push   %edi
  104689:	8b 54 24 08          	mov    0x8(%esp),%edx
  10468d:	8b 7c 24 0c          	mov    0xc(%esp),%edi
  104691:	8b 4c 24 10          	mov    0x10(%esp),%ecx
  104695:	f3 66 6d             	rep insw (%dx),%es:(%edi)
  104698:	5f                   	pop    %edi
  104699:	c3                   	ret    
  10469a:	8d 36                	lea    (%esi),%esi

0010469c <repoutsw>:
  10469c:	56                   	push   %esi
  10469d:	8b 54 24 08          	mov    0x8(%esp),%edx
  1046a1:	8b 74 24 0c          	mov    0xc(%esp),%esi
  1046a5:	8b 4c 24 10          	mov    0x10(%esp),%ecx
  1046a9:	f3 66 6f             	rep outsw %ds:(%esi),(%dx)
  1046ac:	5e                   	pop    %esi
  1046ad:	c3                   	ret    
  1046ae:	90                   	nop
  1046af:	90                   	nop

001046b0 <_kbd_f10>:
  1046b0:	55                   	push   %ebp
  1046b1:	89 e5                	mov    %esp,%ebp
  1046b3:	c9                   	leave  
  1046b4:	c3                   	ret    
  1046b5:	90                   	nop
  1046b6:	90                   	nop
  1046b7:	90                   	nop

001046b8 <_kbd_f11>:
  1046b8:	55                   	push   %ebp
  1046b9:	89 e5                	mov    %esp,%ebp
  1046bb:	c9                   	leave  
  1046bc:	c3                   	ret    
  1046bd:	90                   	nop
  1046be:	90                   	nop
  1046bf:	90                   	nop

001046c0 <_kbd_f12>:
  1046c0:	55                   	push   %ebp
  1046c1:	89 e5                	mov    %esp,%ebp
  1046c3:	c9                   	leave  
  1046c4:	c3                   	ret    
  1046c5:	90                   	nop
  1046c6:	90                   	nop
  1046c7:	90                   	nop

001046c8 <_kbd_f1>:
  1046c8:	55                   	push   %ebp
  1046c9:	89 e5                	mov    %esp,%ebp
  1046cb:	c9                   	leave  
  1046cc:	c3                   	ret    
  1046cd:	90                   	nop
  1046ce:	90                   	nop
  1046cf:	90                   	nop

001046d0 <_kbd_f2>:
  1046d0:	55                   	push   %ebp
  1046d1:	89 e5                	mov    %esp,%ebp
  1046d3:	c9                   	leave  
  1046d4:	c3                   	ret    
  1046d5:	90                   	nop
  1046d6:	90                   	nop
  1046d7:	90                   	nop

001046d8 <_kbd_f3>:
  1046d8:	55                   	push   %ebp
  1046d9:	89 e5                	mov    %esp,%ebp
  1046db:	c9                   	leave  
  1046dc:	c3                   	ret    
  1046dd:	90                   	nop
  1046de:	90                   	nop
  1046df:	90                   	nop

001046e0 <_kbd_f4>:
  1046e0:	55                   	push   %ebp
  1046e1:	89 e5                	mov    %esp,%ebp
  1046e3:	c9                   	leave  
  1046e4:	c3                   	ret    
  1046e5:	90                   	nop
  1046e6:	90                   	nop
  1046e7:	90                   	nop

001046e8 <_kbd_f5>:
  1046e8:	55                   	push   %ebp
  1046e9:	89 e5                	mov    %esp,%ebp
  1046eb:	c9                   	leave  
  1046ec:	c3                   	ret    
  1046ed:	90                   	nop
  1046ee:	90                   	nop
  1046ef:	90                   	nop

001046f0 <_kbd_f6>:
  1046f0:	55                   	push   %ebp
  1046f1:	89 e5                	mov    %esp,%ebp
  1046f3:	c9                   	leave  
  1046f4:	c3                   	ret    
  1046f5:	90                   	nop
  1046f6:	90                   	nop
  1046f7:	90                   	nop

001046f8 <_kbd_f7>:
  1046f8:	55                   	push   %ebp
  1046f9:	89 e5                	mov    %esp,%ebp
  1046fb:	c9                   	leave  
  1046fc:	c3                   	ret    
  1046fd:	90                   	nop
  1046fe:	90                   	nop
  1046ff:	90                   	nop

00104700 <_kbd_f8>:
  104700:	55                   	push   %ebp
  104701:	89 e5                	mov    %esp,%ebp
  104703:	c9                   	leave  
  104704:	c3                   	ret    
  104705:	90                   	nop
  104706:	90                   	nop
  104707:	90                   	nop

00104708 <_kbd_f9>:
  104708:	55                   	push   %ebp
  104709:	89 e5                	mov    %esp,%ebp
  10470b:	c9                   	leave  
  10470c:	c3                   	ret    
  10470d:	90                   	nop
  10470e:	90                   	nop
  10470f:	90                   	nop

00104710 <_init_machine>:
  104710:	55                   	push   %ebp
  104711:	89 e5                	mov    %esp,%ebp
  104713:	83 ec 08             	sub    $0x8,%esp
  104716:	53                   	push   %ebx
  104717:	8d 45 fa             	lea    -0x6(%ebp),%eax
  10471a:	0f 01 08             	sidtl  (%eax)
  10471d:	83 7d fc 00          	cmpl   $0x0,-0x4(%ebp)
  104721:	75 27                	jne    10474a <_init_machine+0x3a>
  104723:	68 00 08 00 00       	push   $0x800
  104728:	e8 bf f0 ff ff       	call   1037ec <sbrk>
  10472d:	89 c3                	mov    %eax,%ebx
  10472f:	68 00 08 00 00       	push   $0x800
  104734:	53                   	push   %ebx
  104735:	e8 8e 0c 00 00       	call   1053c8 <bzero>
  10473a:	66 c7 45 fa ff 07    	movw   $0x7ff,-0x6(%ebp)
  104740:	89 5d fc             	mov    %ebx,-0x4(%ebp)
  104743:	83 c4 0c             	add    $0xc,%esp
  104746:	0f 01 5d fa          	lidtl  -0x6(%ebp)
  10474a:	6a 11                	push   $0x11
  10474c:	6a 20                	push   $0x20
  10474e:	e8 fd fe ff ff       	call   104650 <outportb>
  104753:	6a 11                	push   $0x11
  104755:	68 a0 00 00 00       	push   $0xa0
  10475a:	e8 f1 fe ff ff       	call   104650 <outportb>
  10475f:	6a 20                	push   $0x20
  104761:	6a 21                	push   $0x21
  104763:	e8 e8 fe ff ff       	call   104650 <outportb>
  104768:	6a 28                	push   $0x28
  10476a:	68 a1 00 00 00       	push   $0xa1
  10476f:	e8 dc fe ff ff       	call   104650 <outportb>
  104774:	83 c4 20             	add    $0x20,%esp
  104777:	6a 04                	push   $0x4
  104779:	6a 21                	push   $0x21
  10477b:	e8 d0 fe ff ff       	call   104650 <outportb>
  104780:	6a 02                	push   $0x2
  104782:	68 a1 00 00 00       	push   $0xa1
  104787:	e8 c4 fe ff ff       	call   104650 <outportb>
  10478c:	6a 01                	push   $0x1
  10478e:	6a 21                	push   $0x21
  104790:	e8 bb fe ff ff       	call   104650 <outportb>
  104795:	6a 01                	push   $0x1
  104797:	68 a1 00 00 00       	push   $0xa1
  10479c:	e8 af fe ff ff       	call   104650 <outportb>
  1047a1:	e4 80                	in     $0x80,%al
  1047a3:	83 c4 20             	add    $0x20,%esp
  1047a6:	6a ff                	push   $0xffffffff
  1047a8:	6a 21                	push   $0x21
  1047aa:	e8 a1 fe ff ff       	call   104650 <outportb>
  1047af:	6a ff                	push   $0xffffffff
  1047b1:	68 a1 00 00 00       	push   $0xa1
  1047b6:	e8 95 fe ff ff       	call   104650 <outportb>
  1047bb:	6a 34                	push   $0x34
  1047bd:	6a 43                	push   $0x43
  1047bf:	e8 8c fe ff ff       	call   104650 <outportb>
  1047c4:	68 91 00 00 00       	push   $0x91
  1047c9:	6a 40                	push   $0x40
  1047cb:	e8 80 fe ff ff       	call   104650 <outportb>
  1047d0:	83 c4 20             	add    $0x20,%esp
  1047d3:	6a 2e                	push   $0x2e
  1047d5:	6a 40                	push   $0x40
  1047d7:	e8 74 fe ff ff       	call   104650 <outportb>
  1047dc:	8b 5d f4             	mov    -0xc(%ebp),%ebx
  1047df:	c9                   	leave  
  1047e0:	c3                   	ret    
  1047e1:	90                   	nop
  1047e2:	90                   	nop
  1047e3:	90                   	nop

001047e4 <memset>:
  1047e4:	55                   	push   %ebp
  1047e5:	89 e5                	mov    %esp,%ebp
  1047e7:	53                   	push   %ebx
  1047e8:	8b 5d 08             	mov    0x8(%ebp),%ebx
  1047eb:	89 d9                	mov    %ebx,%ecx
  1047ed:	8b 55 10             	mov    0x10(%ebp),%edx
  1047f0:	4a                   	dec    %edx
  1047f1:	78 0b                	js     1047fe <memset+0x1a>
  1047f3:	8a 45 0c             	mov    0xc(%ebp),%al
  1047f6:	8d 36                	lea    (%esi),%esi
  1047f8:	88 01                	mov    %al,(%ecx)
  1047fa:	41                   	inc    %ecx
  1047fb:	4a                   	dec    %edx
  1047fc:	79 fa                	jns    1047f8 <memset+0x14>
  1047fe:	89 d8                	mov    %ebx,%eax
  104800:	8b 5d fc             	mov    -0x4(%ebp),%ebx
  104803:	c9                   	leave  
  104804:	c3                   	ret    
  104805:	90                   	nop
  104806:	90                   	nop
  104807:	90                   	nop

00104808 <my_putchar>:
  104808:	55                   	push   %ebp
  104809:	89 e5                	mov    %esp,%ebp
  10480b:	ff 75 08             	pushl  0x8(%ebp)
  10480e:	e8 55 fb ff ff       	call   104368 <putchar>
  104813:	c9                   	leave  
  104814:	c3                   	ret    
  104815:	8d 76 00             	lea    0x0(%esi),%esi

00104818 <printf>:
  104818:	55                   	push   %ebp
  104819:	89 e5                	mov    %esp,%ebp
  10481b:	83 ec 14             	sub    $0x14,%esp
  10481e:	57                   	push   %edi
  10481f:	56                   	push   %esi
  104820:	53                   	push   %ebx
  104821:	8b 7d 08             	mov    0x8(%ebp),%edi
  104824:	c6 45 fd 02          	movb   $0x2,-0x3(%ebp)
  104828:	c7 45 f8 08 48 10 00 	movl   $0x104808,-0x8(%ebp)
  10482f:	c7 45 f4 ff 7f 00 00 	movl   $0x7fff,-0xc(%ebp)
  104836:	c7 45 f0 00 00 00 00 	movl   $0x0,-0x10(%ebp)
  10483d:	c6 45 fc 00          	movb   $0x0,-0x4(%ebp)
  104841:	8d 5d ec             	lea    -0x14(%ebp),%ebx
  104844:	53                   	push   %ebx
  104845:	e8 5e 00 00 00       	call   1048a8 <splhigh>
  10484a:	8b 75 ec             	mov    -0x14(%ebp),%esi
  10484d:	81 e6 00 02 00 00    	and    $0x200,%esi
  104853:	8d 55 0c             	lea    0xc(%ebp),%edx
  104856:	8d 45 f0             	lea    -0x10(%ebp),%eax
  104859:	50                   	push   %eax
  10485a:	52                   	push   %edx
  10485b:	57                   	push   %edi
  10485c:	e8 6f 02 00 00       	call   104ad0 <_doprnt>
  104861:	89 c7                	mov    %eax,%edi
  104863:	53                   	push   %ebx
  104864:	e8 4b 00 00 00       	call   1048b4 <splx>
  104869:	83 c4 14             	add    $0x14,%esp
  10486c:	eb 00                	jmp    10486e <printf+0x56>
  10486e:	eb 00                	jmp    104870 <printf+0x58>
  104870:	eb 00                	jmp    104872 <printf+0x5a>
  104872:	9c                   	pushf  
  104873:	eb 00                	jmp    104875 <printf+0x5d>
  104875:	eb 00                	jmp    104877 <printf+0x5f>
  104877:	eb 00                	jmp    104879 <printf+0x61>
  104879:	eb 00                	jmp    10487b <printf+0x63>
  10487b:	58                   	pop    %eax
  10487c:	25 00 02 00 00       	and    $0x200,%eax
  104881:	39 f0                	cmp    %esi,%eax
  104883:	74 16                	je     10489b <printf+0x83>
  104885:	68 7f 57 10 00       	push   $0x10577f
  10488a:	6a 3c                	push   $0x3c
  10488c:	68 88 57 10 00       	push   $0x105788
  104891:	68 a7 57 10 00       	push   $0x1057a7
  104896:	e8 ed 0b 00 00       	call   105488 <__eprintf>
  10489b:	89 f8                	mov    %edi,%eax
  10489d:	8d 65 e0             	lea    -0x20(%ebp),%esp
  1048a0:	5b                   	pop    %ebx
  1048a1:	5e                   	pop    %esi
  1048a2:	5f                   	pop    %edi
  1048a3:	c9                   	leave  
  1048a4:	c3                   	ret    
  1048a5:	90                   	nop
  1048a6:	90                   	nop
  1048a7:	90                   	nop

001048a8 <splhigh>:
  1048a8:	55                   	push   %ebp
  1048a9:	89 e5                	mov    %esp,%ebp
  1048ab:	8b 45 08             	mov    0x8(%ebp),%eax
  1048ae:	9c                   	pushf  
  1048af:	8f 00                	popl   (%eax)
  1048b1:	fa                   	cli    
  1048b2:	c9                   	leave  
  1048b3:	c3                   	ret    

001048b4 <splx>:
  1048b4:	55                   	push   %ebp
  1048b5:	89 e5                	mov    %esp,%ebp
  1048b7:	8b 45 08             	mov    0x8(%ebp),%eax
  1048ba:	8b 00                	mov    (%eax),%eax
  1048bc:	50                   	push   %eax
  1048bd:	eb 00                	jmp    1048bf <splx+0xb>
  1048bf:	eb 00                	jmp    1048c1 <splx+0xd>
  1048c1:	eb 00                	jmp    1048c3 <splx+0xf>
  1048c3:	9d                   	popf   
  1048c4:	eb 00                	jmp    1048c6 <splx+0x12>
  1048c6:	eb 00                	jmp    1048c8 <splx+0x14>
  1048c8:	eb 00                	jmp    1048ca <splx+0x16>
  1048ca:	c9                   	leave  
  1048cb:	c3                   	ret    

001048cc <_strout>:
  1048cc:	55                   	push   %ebp
  1048cd:	89 e5                	mov    %esp,%ebp
  1048cf:	83 ec 0c             	sub    $0xc,%esp
  1048d2:	57                   	push   %edi
  1048d3:	56                   	push   %esi
  1048d4:	53                   	push   %ebx
  1048d5:	8b 7d 08             	mov    0x8(%ebp),%edi
  1048d8:	8b 75 0c             	mov    0xc(%ebp),%esi
  1048db:	8b 5d 14             	mov    0x14(%ebp),%ebx
  1048de:	8a 4d 18             	mov    0x18(%ebp),%cl
  1048e1:	88 4d fc             	mov    %cl,-0x4(%ebp)
  1048e4:	c7 45 f8 00 00 00 00 	movl   $0x0,-0x8(%ebp)
  1048eb:	f6 43 0d 40          	testb  $0x40,0xd(%ebx)
  1048ef:	74 7b                	je     10496c <_strout+0xa0>
  1048f1:	83 7d 10 00          	cmpl   $0x0,0x10(%ebp)
  1048f5:	7d 35                	jge    10492c <_strout+0x60>
  1048f7:	90                   	nop
  1048f8:	80 3f 2d             	cmpb   $0x2d,(%edi)
  1048fb:	75 18                	jne    104915 <_strout+0x49>
  1048fd:	80 7d fc 30          	cmpb   $0x30,-0x4(%ebp)
  104901:	75 12                	jne    104915 <_strout+0x49>
  104903:	ff 4b 04             	decl   0x4(%ebx)
  104906:	78 09                	js     104911 <_strout+0x45>
  104908:	8b 13                	mov    (%ebx),%edx
  10490a:	8a 07                	mov    (%edi),%al
  10490c:	88 02                	mov    %al,(%edx)
  10490e:	47                   	inc    %edi
  10490f:	ff 03                	incl   (%ebx)
  104911:	ff 45 f8             	incl   -0x8(%ebp)
  104914:	4e                   	dec    %esi
  104915:	ff 4b 04             	decl   0x4(%ebx)
  104918:	78 09                	js     104923 <_strout+0x57>
  10491a:	8b 03                	mov    (%ebx),%eax
  10491c:	8a 4d fc             	mov    -0x4(%ebp),%cl
  10491f:	88 08                	mov    %cl,(%eax)
  104921:	ff 03                	incl   (%ebx)
  104923:	ff 45 f8             	incl   -0x8(%ebp)
  104926:	83 45 10 01          	addl   $0x1,0x10(%ebp)
  10492a:	78 cc                	js     1048f8 <_strout+0x2c>
  10492c:	8b 45 10             	mov    0x10(%ebp),%eax
  10492f:	01 f0                	add    %esi,%eax
  104931:	01 45 f8             	add    %eax,-0x8(%ebp)
  104934:	4e                   	dec    %esi
  104935:	78 12                	js     104949 <_strout+0x7d>
  104937:	90                   	nop
  104938:	ff 4b 04             	decl   0x4(%ebx)
  10493b:	78 09                	js     104946 <_strout+0x7a>
  10493d:	8b 13                	mov    (%ebx),%edx
  10493f:	8a 07                	mov    (%edi),%al
  104941:	88 02                	mov    %al,(%edx)
  104943:	47                   	inc    %edi
  104944:	ff 03                	incl   (%ebx)
  104946:	4e                   	dec    %esi
  104947:	79 ef                	jns    104938 <_strout+0x6c>
  104949:	83 7d 10 00          	cmpl   $0x0,0x10(%ebp)
  10494d:	0f 84 94 00 00 00    	je     1049e7 <_strout+0x11b>
  104953:	90                   	nop
  104954:	ff 4b 04             	decl   0x4(%ebx)
  104957:	78 09                	js     104962 <_strout+0x96>
  104959:	8b 03                	mov    (%ebx),%eax
  10495b:	8a 4d fc             	mov    -0x4(%ebp),%cl
  10495e:	88 08                	mov    %cl,(%eax)
  104960:	ff 03                	incl   (%ebx)
  104962:	ff 4d 10             	decl   0x10(%ebp)
  104965:	75 ed                	jne    104954 <_strout+0x88>
  104967:	eb 7e                	jmp    1049e7 <_strout+0x11b>
  104969:	8d 76 00             	lea    0x0(%esi),%esi
  10496c:	8b 4b 08             	mov    0x8(%ebx),%ecx
  10496f:	89 4d f4             	mov    %ecx,-0xc(%ebp)
  104972:	83 7d 10 00          	cmpl   $0x0,0x10(%ebp)
  104976:	7d 32                	jge    1049aa <_strout+0xde>
  104978:	80 3f 2d             	cmpb   $0x2d,(%edi)
  10497b:	75 16                	jne    104993 <_strout+0xc7>
  10497d:	80 7d fc 30          	cmpb   $0x30,-0x4(%ebp)
  104981:	75 10                	jne    104993 <_strout+0xc7>
  104983:	53                   	push   %ebx
  104984:	6a 2d                	push   $0x2d
  104986:	47                   	inc    %edi
  104987:	8b 4d f4             	mov    -0xc(%ebp),%ecx
  10498a:	ff d1                	call   *%ecx
  10498c:	ff 45 f8             	incl   -0x8(%ebp)
  10498f:	4e                   	dec    %esi
  104990:	83 c4 08             	add    $0x8,%esp
  104993:	53                   	push   %ebx
  104994:	0f be 45 fc          	movsbl -0x4(%ebp),%eax
  104998:	50                   	push   %eax
  104999:	8b 4d f4             	mov    -0xc(%ebp),%ecx
  10499c:	ff d1                	call   *%ecx
  10499e:	ff 45 f8             	incl   -0x8(%ebp)
  1049a1:	83 c4 08             	add    $0x8,%esp
  1049a4:	83 45 10 01          	addl   $0x1,0x10(%ebp)
  1049a8:	78 ce                	js     104978 <_strout+0xac>
  1049aa:	8b 45 10             	mov    0x10(%ebp),%eax
  1049ad:	01 f0                	add    %esi,%eax
  1049af:	01 45 f8             	add    %eax,-0x8(%ebp)
  1049b2:	4e                   	dec    %esi
  1049b3:	78 14                	js     1049c9 <_strout+0xfd>
  1049b5:	8d 76 00             	lea    0x0(%esi),%esi
  1049b8:	53                   	push   %ebx
  1049b9:	0f be 07             	movsbl (%edi),%eax
  1049bc:	50                   	push   %eax
  1049bd:	47                   	inc    %edi
  1049be:	8b 4d f4             	mov    -0xc(%ebp),%ecx
  1049c1:	ff d1                	call   *%ecx
  1049c3:	83 c4 08             	add    $0x8,%esp
  1049c6:	4e                   	dec    %esi
  1049c7:	79 ef                	jns    1049b8 <_strout+0xec>
  1049c9:	83 7d 10 00          	cmpl   $0x0,0x10(%ebp)
  1049cd:	74 18                	je     1049e7 <_strout+0x11b>
  1049cf:	0f be 75 fc          	movsbl -0x4(%ebp),%esi
  1049d3:	90                   	nop
  1049d4:	53                   	push   %ebx
  1049d5:	56                   	push   %esi
  1049d6:	8b 4d f4             	mov    -0xc(%ebp),%ecx
  1049d9:	ff d1                	call   *%ecx
  1049db:	ff 4d 10             	decl   0x10(%ebp)
  1049de:	83 c4 08             	add    $0x8,%esp
  1049e1:	83 7d 10 00          	cmpl   $0x0,0x10(%ebp)
  1049e5:	75 ed                	jne    1049d4 <_strout+0x108>
  1049e7:	8b 45 f8             	mov    -0x8(%ebp),%eax
  1049ea:	8d 65 e8             	lea    -0x18(%ebp),%esp
  1049ed:	5b                   	pop    %ebx
  1049ee:	5e                   	pop    %esi
  1049ef:	5f                   	pop    %edi
  1049f0:	c9                   	leave  
  1049f1:	c3                   	ret    
  1049f2:	8d 36                	lea    (%esi),%esi

001049f4 <ultonb>:
  1049f4:	55                   	push   %ebp
  1049f5:	89 e5                	mov    %esp,%ebp
  1049f7:	57                   	push   %edi
  1049f8:	56                   	push   %esi
  1049f9:	53                   	push   %ebx
  1049fa:	8b 55 08             	mov    0x8(%ebp),%edx
  1049fd:	8b 7d 0c             	mov    0xc(%ebp),%edi
  104a00:	8b 75 14             	mov    0x14(%ebp),%esi
  104a03:	8b 45 10             	mov    0x10(%ebp),%eax
  104a06:	48                   	dec    %eax
  104a07:	8d 1c 38             	lea    (%eax,%edi,1),%ebx
  104a0a:	c6 03 00             	movb   $0x0,(%ebx)
  104a0d:	8d 76 00             	lea    0x0(%esi),%esi
  104a10:	4b                   	dec    %ebx
  104a11:	89 d0                	mov    %edx,%eax
  104a13:	31 d2                	xor    %edx,%edx
  104a15:	f7 f6                	div    %esi
  104a17:	89 c1                	mov    %eax,%ecx
  104a19:	8a 92 d2 57 10 00    	mov    0x1057d2(%edx),%dl
  104a1f:	88 13                	mov    %dl,(%ebx)
  104a21:	89 ca                	mov    %ecx,%edx
  104a23:	85 d2                	test   %edx,%edx
  104a25:	75 e9                	jne    104a10 <ultonb+0x1c>
  104a27:	39 fb                	cmp    %edi,%ebx
  104a29:	73 16                	jae    104a41 <ultonb+0x4d>
  104a2b:	68 e3 57 10 00       	push   $0x1057e3
  104a30:	6a 7e                	push   $0x7e
  104a32:	68 ed 57 10 00       	push   $0x1057ed
  104a37:	68 f6 57 10 00       	push   $0x1057f6
  104a3c:	e8 47 0a 00 00       	call   105488 <__eprintf>
  104a41:	89 d8                	mov    %ebx,%eax
  104a43:	8d 65 f4             	lea    -0xc(%ebp),%esp
  104a46:	5b                   	pop    %ebx
  104a47:	5e                   	pop    %esi
  104a48:	5f                   	pop    %edi
  104a49:	c9                   	leave  
  104a4a:	c3                   	ret    
  104a4b:	90                   	nop

00104a4c <ltonb>:
  104a4c:	55                   	push   %ebp
  104a4d:	89 e5                	mov    %esp,%ebp
  104a4f:	57                   	push   %edi
  104a50:	56                   	push   %esi
  104a51:	53                   	push   %ebx
  104a52:	8b 55 08             	mov    0x8(%ebp),%edx
  104a55:	8b 7d 14             	mov    0x14(%ebp),%edi
  104a58:	89 d6                	mov    %edx,%esi
  104a5a:	8b 45 10             	mov    0x10(%ebp),%eax
  104a5d:	48                   	dec    %eax
  104a5e:	8b 5d 0c             	mov    0xc(%ebp),%ebx
  104a61:	01 c3                	add    %eax,%ebx
  104a63:	c6 03 00             	movb   $0x0,(%ebx)
  104a66:	85 f6                	test   %esi,%esi
  104a68:	7f 1a                	jg     104a84 <ltonb+0x38>
  104a6a:	75 10                	jne    104a7c <ltonb+0x30>
  104a6c:	8b 4d 0c             	mov    0xc(%ebp),%ecx
  104a6f:	c6 01 30             	movb   $0x30,(%ecx)
  104a72:	c6 41 01 00          	movb   $0x0,0x1(%ecx)
  104a76:	8b 45 0c             	mov    0xc(%ebp),%eax
  104a79:	eb 4a                	jmp    104ac5 <ltonb+0x79>
  104a7b:	90                   	nop
  104a7c:	89 d0                	mov    %edx,%eax
  104a7e:	f7 d8                	neg    %eax
  104a80:	eb 17                	jmp    104a99 <ltonb+0x4d>
  104a82:	8d 36                	lea    (%esi),%esi
  104a84:	89 d0                	mov    %edx,%eax
  104a86:	eb 11                	jmp    104a99 <ltonb+0x4d>
  104a88:	4b                   	dec    %ebx
  104a89:	31 d2                	xor    %edx,%edx
  104a8b:	f7 f7                	div    %edi
  104a8d:	89 c1                	mov    %eax,%ecx
  104a8f:	8a 82 d2 57 10 00    	mov    0x1057d2(%edx),%al
  104a95:	88 03                	mov    %al,(%ebx)
  104a97:	89 c8                	mov    %ecx,%eax
  104a99:	85 c0                	test   %eax,%eax
  104a9b:	75 eb                	jne    104a88 <ltonb+0x3c>
  104a9d:	85 f6                	test   %esi,%esi
  104a9f:	7d 04                	jge    104aa5 <ltonb+0x59>
  104aa1:	4b                   	dec    %ebx
  104aa2:	c6 03 2d             	movb   $0x2d,(%ebx)
  104aa5:	39 5d 0c             	cmp    %ebx,0xc(%ebp)
  104aa8:	76 19                	jbe    104ac3 <ltonb+0x77>
  104aaa:	68 e3 57 10 00       	push   $0x1057e3
  104aaf:	68 a7 00 00 00       	push   $0xa7
  104ab4:	68 ed 57 10 00       	push   $0x1057ed
  104ab9:	68 f6 57 10 00       	push   $0x1057f6
  104abe:	e8 c5 09 00 00       	call   105488 <__eprintf>
  104ac3:	89 d8                	mov    %ebx,%eax
  104ac5:	8d 65 f4             	lea    -0xc(%ebp),%esp
  104ac8:	5b                   	pop    %ebx
  104ac9:	5e                   	pop    %esi
  104aca:	5f                   	pop    %edi
  104acb:	c9                   	leave  
  104acc:	c3                   	ret    
  104acd:	8d 76 00             	lea    0x0(%esi),%esi

00104ad0 <_doprnt>:
  104ad0:	55                   	push   %ebp
  104ad1:	89 e5                	mov    %esp,%ebp
  104ad3:	81 ec ec 00 00 00    	sub    $0xec,%esp
  104ad9:	57                   	push   %edi
  104ada:	56                   	push   %esi
  104adb:	53                   	push   %ebx
  104adc:	c7 85 30 ff ff ff 00 	movl   $0x0,-0xd0(%ebp)
  104ae3:	00 00 00 
  104ae6:	8d 45 80             	lea    -0x80(%ebp),%eax
  104ae9:	89 85 48 ff ff ff    	mov    %eax,-0xb8(%ebp)
  104aef:	c6 45 80 00          	movb   $0x0,-0x80(%ebp)
  104af3:	8b 7d 08             	mov    0x8(%ebp),%edi
  104af6:	8a 17                	mov    (%edi),%dl
  104af8:	47                   	inc    %edi
  104af9:	89 7d 08             	mov    %edi,0x8(%ebp)
  104afc:	84 d2                	test   %dl,%dl
  104afe:	0f 84 fa 06 00 00    	je     1051fe <_doprnt+0x72e>
  104b04:	8d 45 80             	lea    -0x80(%ebp),%eax
  104b07:	89 85 2c ff ff ff    	mov    %eax,-0xd4(%ebp)
  104b0d:	8d 76 00             	lea    0x0(%esi),%esi
  104b10:	80 fa 25             	cmp    $0x25,%dl
  104b13:	74 4f                	je     104b64 <_doprnt+0x94>
  104b15:	8b bd 48 ff ff ff    	mov    -0xb8(%ebp),%edi
  104b1b:	88 17                	mov    %dl,(%edi)
  104b1d:	47                   	inc    %edi
  104b1e:	89 bd 48 ff ff ff    	mov    %edi,-0xb8(%ebp)
  104b24:	89 fa                	mov    %edi,%edx
  104b26:	2b 95 2c ff ff ff    	sub    -0xd4(%ebp),%edx
  104b2c:	83 fa 4e             	cmp    $0x4e,%edx
  104b2f:	0f 87 b8 06 00 00    	ja     1051ed <_doprnt+0x71d>
  104b35:	ff 75 10             	pushl  0x10(%ebp)
  104b38:	6a 00                	push   $0x0
  104b3a:	52                   	push   %edx
  104b3b:	ff b5 2c ff ff ff    	pushl  -0xd4(%ebp)
  104b41:	e8 86 fd ff ff       	call   1048cc <_strout>
  104b46:	89 c2                	mov    %eax,%edx
  104b48:	01 95 30 ff ff ff    	add    %edx,-0xd0(%ebp)
  104b4e:	8b 85 2c ff ff ff    	mov    -0xd4(%ebp),%eax
  104b54:	89 85 48 ff ff ff    	mov    %eax,-0xb8(%ebp)
  104b5a:	83 c4 10             	add    $0x10,%esp
  104b5d:	e9 8b 06 00 00       	jmp    1051ed <_doprnt+0x71d>
  104b62:	8d 36                	lea    (%esi),%esi
  104b64:	8b bd 2c ff ff ff    	mov    -0xd4(%ebp),%edi
  104b6a:	39 bd 48 ff ff ff    	cmp    %edi,-0xb8(%ebp)
  104b70:	74 25                	je     104b97 <_doprnt+0xc7>
  104b72:	ff 75 10             	pushl  0x10(%ebp)
  104b75:	6a 00                	push   $0x0
  104b77:	8b 85 48 ff ff ff    	mov    -0xb8(%ebp),%eax
  104b7d:	29 f8                	sub    %edi,%eax
  104b7f:	50                   	push   %eax
  104b80:	57                   	push   %edi
  104b81:	e8 46 fd ff ff       	call   1048cc <_strout>
  104b86:	89 c2                	mov    %eax,%edx
  104b88:	01 95 30 ff ff ff    	add    %edx,-0xd0(%ebp)
  104b8e:	89 bd 48 ff ff ff    	mov    %edi,-0xb8(%ebp)
  104b94:	83 c4 10             	add    $0x10,%esp
  104b97:	c7 85 34 ff ff ff 57 	movl   $0x57,-0xcc(%ebp)
  104b9e:	00 00 00 
  104ba1:	c6 85 3c ff ff ff 00 	movb   $0x0,-0xc4(%ebp)
  104ba8:	c7 85 14 ff ff ff 00 	movl   $0x0,-0xec(%ebp)
  104baf:	00 00 00 
  104bb2:	c6 85 40 ff ff ff 20 	movb   $0x20,-0xc0(%ebp)
  104bb9:	8b 7d 08             	mov    0x8(%ebp),%edi
  104bbc:	80 3f 2d             	cmpb   $0x2d,(%edi)
  104bbf:	75 0a                	jne    104bcb <_doprnt+0xfb>
  104bc1:	fe 85 3c ff ff ff    	incb   -0xc4(%ebp)
  104bc7:	47                   	inc    %edi
  104bc8:	89 7d 08             	mov    %edi,0x8(%ebp)
  104bcb:	8b 45 08             	mov    0x8(%ebp),%eax
  104bce:	80 38 30             	cmpb   $0x30,(%eax)
  104bd1:	75 0b                	jne    104bde <_doprnt+0x10e>
  104bd3:	c6 85 40 ff ff ff 30 	movb   $0x30,-0xc0(%ebp)
  104bda:	40                   	inc    %eax
  104bdb:	89 45 08             	mov    %eax,0x8(%ebp)
  104bde:	8b 7d 08             	mov    0x8(%ebp),%edi
  104be1:	80 3f 2a             	cmpb   $0x2a,(%edi)
  104be4:	74 46                	je     104c2c <_doprnt+0x15c>
  104be6:	c7 85 44 ff ff ff 00 	movl   $0x0,-0xbc(%ebp)
  104bed:	00 00 00 
  104bf0:	0f be 07             	movsbl (%edi),%eax
  104bf3:	89 c2                	mov    %eax,%edx
  104bf5:	83 c2 d0             	add    $0xffffffd0,%edx
  104bf8:	47                   	inc    %edi
  104bf9:	89 7d 08             	mov    %edi,0x8(%ebp)
  104bfc:	85 d2                	test   %edx,%edx
  104bfe:	7c 4c                	jl     104c4c <_doprnt+0x17c>
  104c00:	83 fa 09             	cmp    $0x9,%edx
  104c03:	7f 47                	jg     104c4c <_doprnt+0x17c>
  104c05:	8b bd 44 ff ff ff    	mov    -0xbc(%ebp),%edi
  104c0b:	8d 3c ff             	lea    (%edi,%edi,8),%edi
  104c0e:	03 bd 44 ff ff ff    	add    -0xbc(%ebp),%edi
  104c14:	01 fa                	add    %edi,%edx
  104c16:	89 95 44 ff ff ff    	mov    %edx,-0xbc(%ebp)
  104c1c:	8b 45 08             	mov    0x8(%ebp),%eax
  104c1f:	0f be 00             	movsbl (%eax),%eax
  104c22:	89 c2                	mov    %eax,%edx
  104c24:	83 c2 d0             	add    $0xffffffd0,%edx
  104c27:	ff 45 08             	incl   0x8(%ebp)
  104c2a:	eb d0                	jmp    104bfc <_doprnt+0x12c>
  104c2c:	ff 45 08             	incl   0x8(%ebp)
  104c2f:	8b 7d 08             	mov    0x8(%ebp),%edi
  104c32:	0f be 17             	movsbl (%edi),%edx
  104c35:	83 c2 d0             	add    $0xffffffd0,%edx
  104c38:	47                   	inc    %edi
  104c39:	89 7d 08             	mov    %edi,0x8(%ebp)
  104c3c:	83 45 0c 04          	addl   $0x4,0xc(%ebp)
  104c40:	8b 45 0c             	mov    0xc(%ebp),%eax
  104c43:	8b 40 fc             	mov    -0x4(%eax),%eax
  104c46:	89 85 44 ff ff ff    	mov    %eax,-0xbc(%ebp)
  104c4c:	83 c2 30             	add    $0x30,%edx
  104c4f:	83 fa 2e             	cmp    $0x2e,%edx
  104c52:	75 79                	jne    104ccd <_doprnt+0x1fd>
  104c54:	8b 7d 08             	mov    0x8(%ebp),%edi
  104c57:	80 3f 2a             	cmpb   $0x2a,(%edi)
  104c5a:	74 54                	je     104cb0 <_doprnt+0x1e0>
  104c5c:	c7 85 14 ff ff ff 00 	movl   $0x0,-0xec(%ebp)
  104c63:	00 00 00 
  104c66:	0f be 07             	movsbl (%edi),%eax
  104c69:	89 c2                	mov    %eax,%edx
  104c6b:	83 c2 d0             	add    $0xffffffd0,%edx
  104c6e:	47                   	inc    %edi
  104c6f:	89 7d 08             	mov    %edi,0x8(%ebp)
  104c72:	85 d2                	test   %edx,%edx
  104c74:	7c 32                	jl     104ca8 <_doprnt+0x1d8>
  104c76:	8d 36                	lea    (%esi),%esi
  104c78:	83 fa 09             	cmp    $0x9,%edx
  104c7b:	7f 2b                	jg     104ca8 <_doprnt+0x1d8>
  104c7d:	8b bd 14 ff ff ff    	mov    -0xec(%ebp),%edi
  104c83:	8d 3c ff             	lea    (%edi,%edi,8),%edi
  104c86:	8b 85 14 ff ff ff    	mov    -0xec(%ebp),%eax
  104c8c:	01 f8                	add    %edi,%eax
  104c8e:	01 c2                	add    %eax,%edx
  104c90:	89 95 14 ff ff ff    	mov    %edx,-0xec(%ebp)
  104c96:	8b 7d 08             	mov    0x8(%ebp),%edi
  104c99:	0f be 3f             	movsbl (%edi),%edi
  104c9c:	89 fa                	mov    %edi,%edx
  104c9e:	83 c2 d0             	add    $0xffffffd0,%edx
  104ca1:	ff 45 08             	incl   0x8(%ebp)
  104ca4:	85 d2                	test   %edx,%edx
  104ca6:	7d d0                	jge    104c78 <_doprnt+0x1a8>
  104ca8:	83 c2 30             	add    $0x30,%edx
  104cab:	eb 20                	jmp    104ccd <_doprnt+0x1fd>
  104cad:	8d 76 00             	lea    0x0(%esi),%esi
  104cb0:	ff 45 08             	incl   0x8(%ebp)
  104cb3:	8b 45 08             	mov    0x8(%ebp),%eax
  104cb6:	0f be 10             	movsbl (%eax),%edx
  104cb9:	40                   	inc    %eax
  104cba:	89 45 08             	mov    %eax,0x8(%ebp)
  104cbd:	83 45 0c 04          	addl   $0x4,0xc(%ebp)
  104cc1:	8b 7d 0c             	mov    0xc(%ebp),%edi
  104cc4:	8b 7f fc             	mov    -0x4(%edi),%edi
  104cc7:	89 bd 14 ff ff ff    	mov    %edi,-0xec(%ebp)
  104ccd:	8d 4a db             	lea    -0x25(%edx),%ecx
  104cd0:	83 f9 53             	cmp    $0x53,%ecx
  104cd3:	0f 87 fb 04 00 00    	ja     1051d4 <_doprnt+0x704>
  104cd9:	ff 24 8d e0 4c 10 00 	jmp    *0x104ce0(,%ecx,4)
  104ce0:	c0 51 10 00          	rclb   $0x0,0x10(%ecx)
  104ce4:	d4 51                	aam    $0x51
  104ce6:	10 00                	adc    %al,(%eax)
  104ce8:	d4 51                	aam    $0x51
  104cea:	10 00                	adc    %al,(%eax)
  104cec:	d4 51                	aam    $0x51
  104cee:	10 00                	adc    %al,(%eax)
  104cf0:	d4 51                	aam    $0x51
  104cf2:	10 00                	adc    %al,(%eax)
  104cf4:	d4 51                	aam    $0x51
  104cf6:	10 00                	adc    %al,(%eax)
  104cf8:	d4 51                	aam    $0x51
  104cfa:	10 00                	adc    %al,(%eax)
  104cfc:	d4 51                	aam    $0x51
  104cfe:	10 00                	adc    %al,(%eax)
  104d00:	d4 51                	aam    $0x51
  104d02:	10 00                	adc    %al,(%eax)
  104d04:	d4 51                	aam    $0x51
  104d06:	10 00                	adc    %al,(%eax)
  104d08:	d4 51                	aam    $0x51
  104d0a:	10 00                	adc    %al,(%eax)
  104d0c:	d4 51                	aam    $0x51
  104d0e:	10 00                	adc    %al,(%eax)
  104d10:	d4 51                	aam    $0x51
  104d12:	10 00                	adc    %al,(%eax)
  104d14:	d4 51                	aam    $0x51
  104d16:	10 00                	adc    %al,(%eax)
  104d18:	d4 51                	aam    $0x51
  104d1a:	10 00                	adc    %al,(%eax)
  104d1c:	d4 51                	aam    $0x51
  104d1e:	10 00                	adc    %al,(%eax)
  104d20:	d4 51                	aam    $0x51
  104d22:	10 00                	adc    %al,(%eax)
  104d24:	d4 51                	aam    $0x51
  104d26:	10 00                	adc    %al,(%eax)
  104d28:	d4 51                	aam    $0x51
  104d2a:	10 00                	adc    %al,(%eax)
  104d2c:	d4 51                	aam    $0x51
  104d2e:	10 00                	adc    %al,(%eax)
  104d30:	d4 51                	aam    $0x51
  104d32:	10 00                	adc    %al,(%eax)
  104d34:	d4 51                	aam    $0x51
  104d36:	10 00                	adc    %al,(%eax)
  104d38:	d4 51                	aam    $0x51
  104d3a:	10 00                	adc    %al,(%eax)
  104d3c:	d4 51                	aam    $0x51
  104d3e:	10 00                	adc    %al,(%eax)
  104d40:	d4 51                	aam    $0x51
  104d42:	10 00                	adc    %al,(%eax)
  104d44:	d4 51                	aam    $0x51
  104d46:	10 00                	adc    %al,(%eax)
  104d48:	d4 51                	aam    $0x51
  104d4a:	10 00                	adc    %al,(%eax)
  104d4c:	d4 51                	aam    $0x51
  104d4e:	10 00                	adc    %al,(%eax)
  104d50:	d4 51                	aam    $0x51
  104d52:	10 00                	adc    %al,(%eax)
  104d54:	d4 51                	aam    $0x51
  104d56:	10 00                	adc    %al,(%eax)
  104d58:	d4 51                	aam    $0x51
  104d5a:	10 00                	adc    %al,(%eax)
  104d5c:	d4 51                	aam    $0x51
  104d5e:	10 00                	adc    %al,(%eax)
  104d60:	d4 51                	aam    $0x51
  104d62:	10 00                	adc    %al,(%eax)
  104d64:	d4 51                	aam    $0x51
  104d66:	10 00                	adc    %al,(%eax)
  104d68:	d4 51                	aam    $0x51
  104d6a:	10 00                	adc    %al,(%eax)
  104d6c:	d4 51                	aam    $0x51
  104d6e:	10 00                	adc    %al,(%eax)
  104d70:	d4 51                	aam    $0x51
  104d72:	10 00                	adc    %al,(%eax)
  104d74:	d4 51                	aam    $0x51
  104d76:	10 00                	adc    %al,(%eax)
  104d78:	d4 51                	aam    $0x51
  104d7a:	10 00                	adc    %al,(%eax)
  104d7c:	d4 51                	aam    $0x51
  104d7e:	10 00                	adc    %al,(%eax)
  104d80:	d4 51                	aam    $0x51
  104d82:	10 00                	adc    %al,(%eax)
  104d84:	d4 51                	aam    $0x51
  104d86:	10 00                	adc    %al,(%eax)
  104d88:	d4 51                	aam    $0x51
  104d8a:	10 00                	adc    %al,(%eax)
  104d8c:	d4 51                	aam    $0x51
  104d8e:	10 00                	adc    %al,(%eax)
  104d90:	d4 51                	aam    $0x51
  104d92:	10 00                	adc    %al,(%eax)
  104d94:	d4 51                	aam    $0x51
  104d96:	10 00                	adc    %al,(%eax)
  104d98:	d4 51                	aam    $0x51
  104d9a:	10 00                	adc    %al,(%eax)
  104d9c:	d4 51                	aam    $0x51
  104d9e:	10 00                	adc    %al,(%eax)
  104da0:	d4 51                	aam    $0x51
  104da2:	10 00                	adc    %al,(%eax)
  104da4:	d4 51                	aam    $0x51
  104da6:	10 00                	adc    %al,(%eax)
  104da8:	d4 51                	aam    $0x51
  104daa:	10 00                	adc    %al,(%eax)
  104dac:	30 50 10             	xor    %dl,0x10(%eax)
  104daf:	00 d4                	add    %dl,%ah
  104db1:	51                   	push   %ecx
  104db2:	10 00                	adc    %al,(%eax)
  104db4:	d4 51                	aam    $0x51
  104db6:	10 00                	adc    %al,(%eax)
  104db8:	d4 51                	aam    $0x51
  104dba:	10 00                	adc    %al,(%eax)
  104dbc:	d4 51                	aam    $0x51
  104dbe:	10 00                	adc    %al,(%eax)
  104dc0:	d4 51                	aam    $0x51
  104dc2:	10 00                	adc    %al,(%eax)
  104dc4:	d4 51                	aam    $0x51
  104dc6:	10 00                	adc    %al,(%eax)
  104dc8:	d4 51                	aam    $0x51
  104dca:	10 00                	adc    %al,(%eax)
  104dcc:	d4 51                	aam    $0x51
  104dce:	10 00                	adc    %al,(%eax)
  104dd0:	d4 51                	aam    $0x51
  104dd2:	10 00                	adc    %al,(%eax)
  104dd4:	30 4e 10             	xor    %cl,0x10(%esi)
  104dd7:	00 04 51             	add    %al,(%ecx,%edx,2)
  104dda:	10 00                	adc    %al,(%eax)
  104ddc:	4c                   	dec    %esp
  104ddd:	50                   	push   %eax
  104dde:	10 00                	adc    %al,(%eax)
  104de0:	d4 51                	aam    $0x51
  104de2:	10 00                	adc    %al,(%eax)
  104de4:	d4 51                	aam    $0x51
  104de6:	10 00                	adc    %al,(%eax)
  104de8:	d4 51                	aam    $0x51
  104dea:	10 00                	adc    %al,(%eax)
  104dec:	d4 51                	aam    $0x51
  104dee:	10 00                	adc    %al,(%eax)
  104df0:	4c                   	dec    %esp
  104df1:	50                   	push   %eax
  104df2:	10 00                	adc    %al,(%eax)
  104df4:	d4 51                	aam    $0x51
  104df6:	10 00                	adc    %al,(%eax)
  104df8:	d4 51                	aam    $0x51
  104dfa:	10 00                	adc    %al,(%eax)
  104dfc:	68 4f 10 00 d4       	push   $0xd400104f
  104e01:	51                   	push   %ecx
  104e02:	10 00                	adc    %al,(%eax)
  104e04:	d4 51                	aam    $0x51
  104e06:	10 00                	adc    %al,(%eax)
  104e08:	1c 50                	sbb    $0x50,%al
  104e0a:	10 00                	adc    %al,(%eax)
  104e0c:	30 50 10             	xor    %dl,0x10(%eax)
  104e0f:	00 d4                	add    %dl,%ah
  104e11:	51                   	push   %ecx
  104e12:	10 00                	adc    %al,(%eax)
  104e14:	d4 51                	aam    $0x51
  104e16:	10 00                	adc    %al,(%eax)
  104e18:	70 51                	jo     104e6b <_doprnt+0x39b>
  104e1a:	10 00                	adc    %al,(%eax)
  104e1c:	14 50                	adc    $0x50,%al
  104e1e:	10 00                	adc    %al,(%eax)
  104e20:	74 50                	je     104e72 <_doprnt+0x3a2>
  104e22:	10 00                	adc    %al,(%eax)
  104e24:	d4 51                	aam    $0x51
  104e26:	10 00                	adc    %al,(%eax)
  104e28:	d4 51                	aam    $0x51
  104e2a:	10 00                	adc    %al,(%eax)
  104e2c:	3a 50 10             	cmp    0x10(%eax),%dl
  104e2f:	00 83 45 0c 04 8b    	add    %al,-0x74fbf3bb(%ebx)
  104e35:	45                   	inc    %ebp
  104e36:	0c 8b                	or     $0x8b,%al
  104e38:	40                   	inc    %eax
  104e39:	fc                   	cld    
  104e3a:	89 85 38 ff ff ff    	mov    %eax,-0xc8(%ebp)
  104e40:	83 45 0c 04          	addl   $0x4,0xc(%ebp)
  104e44:	8b 7d 0c             	mov    0xc(%ebp),%edi
  104e47:	8b 5f fc             	mov    -0x4(%edi),%ebx
  104e4a:	0f be 03             	movsbl (%ebx),%eax
  104e4d:	50                   	push   %eax
  104e4e:	43                   	inc    %ebx
  104e4f:	6a 32                	push   $0x32
  104e51:	8d bd 4c ff ff ff    	lea    -0xb4(%ebp),%edi
  104e57:	57                   	push   %edi
  104e58:	ff b5 38 ff ff ff    	pushl  -0xc8(%ebp)
  104e5e:	e8 91 fb ff ff       	call   1049f4 <ultonb>
  104e63:	89 c6                	mov    %eax,%esi
  104e65:	ff 75 10             	pushl  0x10(%ebp)
  104e68:	6a 00                	push   $0x0
  104e6a:	30 d2                	xor    %dl,%dl
  104e6c:	89 b5 14 ff ff ff    	mov    %esi,-0xec(%ebp)
  104e72:	89 f7                	mov    %esi,%edi
  104e74:	88 d0                	mov    %dl,%al
  104e76:	fc                   	cld    
  104e77:	b9 ff ff ff ff       	mov    $0xffffffff,%ecx
  104e7c:	f2 ae                	repnz scas %es:(%edi),%al
  104e7e:	f7 d1                	not    %ecx
  104e80:	89 c8                	mov    %ecx,%eax
  104e82:	48                   	dec    %eax
  104e83:	50                   	push   %eax
  104e84:	56                   	push   %esi
  104e85:	e8 42 fa ff ff       	call   1048cc <_strout>
  104e8a:	89 c2                	mov    %eax,%edx
  104e8c:	01 95 30 ff ff ff    	add    %edx,-0xd0(%ebp)
  104e92:	83 c4 20             	add    $0x20,%esp
  104e95:	83 bd 38 ff ff ff 00 	cmpl   $0x0,-0xc8(%ebp)
  104e9c:	75 12                	jne    104eb0 <_doprnt+0x3e0>
  104e9e:	8b bd 48 ff ff ff    	mov    -0xb8(%ebp),%edi
  104ea4:	c6 07 3c             	movb   $0x3c,(%edi)
  104ea7:	47                   	inc    %edi
  104ea8:	c6 07 3e             	movb   $0x3e,(%edi)
  104eab:	e9 19 03 00 00       	jmp    1051c9 <_doprnt+0x6f9>
  104eb0:	b2 3c                	mov    $0x3c,%dl
  104eb2:	80 3b 00             	cmpb   $0x0,(%ebx)
  104eb5:	0f 84 95 00 00 00    	je     104f50 <_doprnt+0x480>
  104ebb:	0f be 0b             	movsbl (%ebx),%ecx
  104ebe:	43                   	inc    %ebx
  104ebf:	49                   	dec    %ecx
  104ec0:	89 8d 28 ff ff ff    	mov    %ecx,-0xd8(%ebp)
  104ec6:	8b 85 38 ff ff ff    	mov    -0xc8(%ebp),%eax
  104ecc:	0f a3 c8             	bt     %ecx,%eax
  104ecf:	73 74                	jae    104f45 <_doprnt+0x475>
  104ed1:	8b bd 48 ff ff ff    	mov    -0xb8(%ebp),%edi
  104ed7:	88 17                	mov    %dl,(%edi)
  104ed9:	47                   	inc    %edi
  104eda:	89 bd 48 ff ff ff    	mov    %edi,-0xb8(%ebp)
  104ee0:	80 3b 20             	cmpb   $0x20,(%ebx)
  104ee3:	7e 1a                	jle    104eff <_doprnt+0x42f>
  104ee5:	8d 76 00             	lea    0x0(%esi),%esi
  104ee8:	8a 03                	mov    (%ebx),%al
  104eea:	8b bd 48 ff ff ff    	mov    -0xb8(%ebp),%edi
  104ef0:	88 07                	mov    %al,(%edi)
  104ef2:	47                   	inc    %edi
  104ef3:	89 bd 48 ff ff ff    	mov    %edi,-0xb8(%ebp)
  104ef9:	43                   	inc    %ebx
  104efa:	80 3b 20             	cmpb   $0x20,(%ebx)
  104efd:	7f e9                	jg     104ee8 <_doprnt+0x418>
  104eff:	ff 75 10             	pushl  0x10(%ebp)
  104f02:	6a 00                	push   $0x0
  104f04:	8b 85 48 ff ff ff    	mov    -0xb8(%ebp),%eax
  104f0a:	2b 85 2c ff ff ff    	sub    -0xd4(%ebp),%eax
  104f10:	50                   	push   %eax
  104f11:	ff b5 2c ff ff ff    	pushl  -0xd4(%ebp)
  104f17:	e8 b0 f9 ff ff       	call   1048cc <_strout>
  104f1c:	89 c2                	mov    %eax,%edx
  104f1e:	8b bd 30 ff ff ff    	mov    -0xd0(%ebp),%edi
  104f24:	8d 54 3a 01          	lea    0x1(%edx,%edi,1),%edx
  104f28:	89 95 30 ff ff ff    	mov    %edx,-0xd0(%ebp)
  104f2e:	8b 85 2c ff ff ff    	mov    -0xd4(%ebp),%eax
  104f34:	89 85 48 ff ff ff    	mov    %eax,-0xb8(%ebp)
  104f3a:	b2 2c                	mov    $0x2c,%dl
  104f3c:	83 c4 10             	add    $0x10,%esp
  104f3f:	e9 6e ff ff ff       	jmp    104eb2 <_doprnt+0x3e2>
  104f44:	43                   	inc    %ebx
  104f45:	80 3b 20             	cmpb   $0x20,(%ebx)
  104f48:	7f fa                	jg     104f44 <_doprnt+0x474>
  104f4a:	e9 63 ff ff ff       	jmp    104eb2 <_doprnt+0x3e2>
  104f4f:	90                   	nop
  104f50:	80 fa 2c             	cmp    $0x2c,%dl
  104f53:	0f 85 94 02 00 00    	jne    1051ed <_doprnt+0x71d>
  104f59:	8b bd 48 ff ff ff    	mov    -0xb8(%ebp),%edi
  104f5f:	c6 07 3e             	movb   $0x3e,(%edi)
  104f62:	e9 62 02 00 00       	jmp    1051c9 <_doprnt+0x6f9>
  104f67:	90                   	nop
  104f68:	8b 45 08             	mov    0x8(%ebp),%eax
  104f6b:	8a 00                	mov    (%eax),%al
  104f6d:	04 a8                	add    $0xa8,%al
  104f6f:	0f be d0             	movsbl %al,%edx
  104f72:	ff 45 08             	incl   0x8(%ebp)
  104f75:	83 fa 20             	cmp    $0x20,%edx
  104f78:	0f 87 8e 00 00 00    	ja     10500c <_doprnt+0x53c>
  104f7e:	ff 24 95 88 4f 10 00 	jmp    *0x104f88(,%edx,4)
  104f85:	8d 76 00             	lea    0x0(%esi),%esi
  104f88:	30 50 10             	xor    %dl,0x10(%eax)
  104f8b:	00 0c 50             	add    %cl,(%eax,%edx,2)
  104f8e:	10 00                	adc    %al,(%eax)
  104f90:	0c 50                	or     $0x50,%al
  104f92:	10 00                	adc    %al,(%eax)
  104f94:	0c 50                	or     $0x50,%al
  104f96:	10 00                	adc    %al,(%eax)
  104f98:	0c 50                	or     $0x50,%al
  104f9a:	10 00                	adc    %al,(%eax)
  104f9c:	0c 50                	or     $0x50,%al
  104f9e:	10 00                	adc    %al,(%eax)
  104fa0:	0c 50                	or     $0x50,%al
  104fa2:	10 00                	adc    %al,(%eax)
  104fa4:	0c 50                	or     $0x50,%al
  104fa6:	10 00                	adc    %al,(%eax)
  104fa8:	0c 50                	or     $0x50,%al
  104faa:	10 00                	adc    %al,(%eax)
  104fac:	0c 50                	or     $0x50,%al
  104fae:	10 00                	adc    %al,(%eax)
  104fb0:	0c 50                	or     $0x50,%al
  104fb2:	10 00                	adc    %al,(%eax)
  104fb4:	0c 50                	or     $0x50,%al
  104fb6:	10 00                	adc    %al,(%eax)
  104fb8:	4c                   	dec    %esp
  104fb9:	50                   	push   %eax
  104fba:	10 00                	adc    %al,(%eax)
  104fbc:	0c 50                	or     $0x50,%al
  104fbe:	10 00                	adc    %al,(%eax)
  104fc0:	0c 50                	or     $0x50,%al
  104fc2:	10 00                	adc    %al,(%eax)
  104fc4:	0c 50                	or     $0x50,%al
  104fc6:	10 00                	adc    %al,(%eax)
  104fc8:	0c 50                	or     $0x50,%al
  104fca:	10 00                	adc    %al,(%eax)
  104fcc:	4c                   	dec    %esp
  104fcd:	50                   	push   %eax
  104fce:	10 00                	adc    %al,(%eax)
  104fd0:	0c 50                	or     $0x50,%al
  104fd2:	10 00                	adc    %al,(%eax)
  104fd4:	0c 50                	or     $0x50,%al
  104fd6:	10 00                	adc    %al,(%eax)
  104fd8:	0c 50                	or     $0x50,%al
  104fda:	10 00                	adc    %al,(%eax)
  104fdc:	0c 50                	or     $0x50,%al
  104fde:	10 00                	adc    %al,(%eax)
  104fe0:	0c 50                	or     $0x50,%al
  104fe2:	10 00                	adc    %al,(%eax)
  104fe4:	1c 50                	sbb    $0x50,%al
  104fe6:	10 00                	adc    %al,(%eax)
  104fe8:	0c 50                	or     $0x50,%al
  104fea:	10 00                	adc    %al,(%eax)
  104fec:	0c 50                	or     $0x50,%al
  104fee:	10 00                	adc    %al,(%eax)
  104ff0:	0c 50                	or     $0x50,%al
  104ff2:	10 00                	adc    %al,(%eax)
  104ff4:	0c 50                	or     $0x50,%al
  104ff6:	10 00                	adc    %al,(%eax)
  104ff8:	14 50                	adc    $0x50,%al
  104ffa:	10 00                	adc    %al,(%eax)
  104ffc:	74 50                	je     10504e <_doprnt+0x57e>
  104ffe:	10 00                	adc    %al,(%eax)
  105000:	0c 50                	or     $0x50,%al
  105002:	10 00                	adc    %al,(%eax)
  105004:	0c 50                	or     $0x50,%al
  105006:	10 00                	adc    %al,(%eax)
  105008:	3a 50 10             	cmp    0x10(%eax),%dl
  10500b:	00 ff                	add    %bh,%bh
  10500d:	4d                   	dec    %ebp
  10500e:	08 eb                	or     %ch,%bl
  105010:	63 8d 76 00 bb 02    	arpl   %cx,0x2bb0076(%ebp)
  105016:	00 00                	add    %al,(%eax)
  105018:	00 eb                	add    %ch,%bl
  10501a:	24 90                	and    $0x90,%al
  10501c:	bb 08 00 00 00       	mov    $0x8,%ebx
  105021:	83 45 0c 04          	addl   $0x4,0xc(%ebp)
  105025:	8b 45 0c             	mov    0xc(%ebp),%eax
  105028:	8b 48 fc             	mov    -0x4(%eax),%ecx
  10502b:	eb 56                	jmp    105083 <_doprnt+0x5b3>
  10502d:	8d 76 00             	lea    0x0(%esi),%esi
  105030:	c7 85 34 ff ff ff 37 	movl   $0x37,-0xcc(%ebp)
  105037:	00 00 00 
  10503a:	bb 10 00 00 00       	mov    $0x10,%ebx
  10503f:	83 45 0c 04          	addl   $0x4,0xc(%ebp)
  105043:	8b 7d 0c             	mov    0xc(%ebp),%edi
  105046:	8b 4f fc             	mov    -0x4(%edi),%ecx
  105049:	eb 38                	jmp    105083 <_doprnt+0x5b3>
  10504b:	90                   	nop
  10504c:	bb 0a 00 00 00       	mov    $0xa,%ebx
  105051:	83 45 0c 04          	addl   $0x4,0xc(%ebp)
  105055:	8b 45 0c             	mov    0xc(%ebp),%eax
  105058:	8b 48 fc             	mov    -0x4(%eax),%ecx
  10505b:	85 c9                	test   %ecx,%ecx
  10505d:	7d 24                	jge    105083 <_doprnt+0x5b3>
  10505f:	8b bd 48 ff ff ff    	mov    -0xb8(%ebp),%edi
  105065:	c6 07 2d             	movb   $0x2d,(%edi)
  105068:	47                   	inc    %edi
  105069:	89 bd 48 ff ff ff    	mov    %edi,-0xb8(%ebp)
  10506f:	f7 d9                	neg    %ecx
  105071:	eb 10                	jmp    105083 <_doprnt+0x5b3>
  105073:	90                   	nop
  105074:	83 45 0c 04          	addl   $0x4,0xc(%ebp)
  105078:	8b 45 0c             	mov    0xc(%ebp),%eax
  10507b:	8b 48 fc             	mov    -0x4(%eax),%ecx
  10507e:	bb 0a 00 00 00       	mov    $0xa,%ebx
  105083:	85 c9                	test   %ecx,%ecx
  105085:	75 19                	jne    1050a0 <_doprnt+0x5d0>
  105087:	83 bd 14 ff ff ff 00 	cmpl   $0x0,-0xec(%ebp)
  10508e:	75 10                	jne    1050a0 <_doprnt+0x5d0>
  105090:	8b bd 48 ff ff ff    	mov    -0xb8(%ebp),%edi
  105096:	c6 07 30             	movb   $0x30,(%edi)
  105099:	47                   	inc    %edi
  10509a:	89 bd 48 ff ff ff    	mov    %edi,-0xb8(%ebp)
  1050a0:	8d b5 4c ff ff ff    	lea    -0xb4(%ebp),%esi
  1050a6:	85 c9                	test   %ecx,%ecx
  1050a8:	74 35                	je     1050df <_doprnt+0x60f>
  1050aa:	8d 36                	lea    (%esi),%esi
  1050ac:	89 c8                	mov    %ecx,%eax
  1050ae:	31 d2                	xor    %edx,%edx
  1050b0:	f7 f3                	div    %ebx
  1050b2:	89 b5 14 ff ff ff    	mov    %esi,-0xec(%ebp)
  1050b8:	46                   	inc    %esi
  1050b9:	83 fa 09             	cmp    $0x9,%edx
  1050bc:	7e 0a                	jle    1050c8 <_doprnt+0x5f8>
  1050be:	02 95 34 ff ff ff    	add    -0xcc(%ebp),%dl
  1050c4:	eb 05                	jmp    1050cb <_doprnt+0x5fb>
  1050c6:	8d 36                	lea    (%esi),%esi
  1050c8:	80 c2 30             	add    $0x30,%dl
  1050cb:	8b 85 14 ff ff ff    	mov    -0xec(%ebp),%eax
  1050d1:	88 10                	mov    %dl,(%eax)
  1050d3:	89 c8                	mov    %ecx,%eax
  1050d5:	31 d2                	xor    %edx,%edx
  1050d7:	f7 f3                	div    %ebx
  1050d9:	89 c1                	mov    %eax,%ecx
  1050db:	85 c9                	test   %ecx,%ecx
  1050dd:	75 cd                	jne    1050ac <_doprnt+0x5dc>
  1050df:	8d 85 4c ff ff ff    	lea    -0xb4(%ebp),%eax
  1050e5:	89 c2                	mov    %eax,%edx
  1050e7:	39 c6                	cmp    %eax,%esi
  1050e9:	76 2f                	jbe    10511a <_doprnt+0x64a>
  1050eb:	90                   	nop
  1050ec:	4e                   	dec    %esi
  1050ed:	8a 06                	mov    (%esi),%al
  1050ef:	8b bd 48 ff ff ff    	mov    -0xb8(%ebp),%edi
  1050f5:	88 07                	mov    %al,(%edi)
  1050f7:	47                   	inc    %edi
  1050f8:	89 bd 48 ff ff ff    	mov    %edi,-0xb8(%ebp)
  1050fe:	39 d6                	cmp    %edx,%esi
  105100:	77 ea                	ja     1050ec <_doprnt+0x61c>
  105102:	eb 16                	jmp    10511a <_doprnt+0x64a>
  105104:	83 45 0c 04          	addl   $0x4,0xc(%ebp)
  105108:	8b 45 0c             	mov    0xc(%ebp),%eax
  10510b:	8a 40 fc             	mov    -0x4(%eax),%al
  10510e:	88 45 80             	mov    %al,-0x80(%ebp)
  105111:	8d 7d 81             	lea    -0x7f(%ebp),%edi
  105114:	89 bd 48 ff ff ff    	mov    %edi,-0xb8(%ebp)
  10511a:	8d 75 80             	lea    -0x80(%ebp),%esi
  10511d:	8b 85 48 ff ff ff    	mov    -0xb8(%ebp),%eax
  105123:	29 f0                	sub    %esi,%eax
  105125:	8b 95 44 ff ff ff    	mov    -0xbc(%ebp),%edx
  10512b:	29 c2                	sub    %eax,%edx
  10512d:	79 02                	jns    105131 <_doprnt+0x661>
  10512f:	31 d2                	xor    %edx,%edx
  105131:	80 bd 3c ff ff ff 00 	cmpb   $0x0,-0xc4(%ebp)
  105138:	75 02                	jne    10513c <_doprnt+0x66c>
  10513a:	f7 da                	neg    %edx
  10513c:	0f be 85 40 ff ff ff 	movsbl -0xc0(%ebp),%eax
  105143:	50                   	push   %eax
  105144:	ff 75 10             	pushl  0x10(%ebp)
  105147:	52                   	push   %edx
  105148:	8b bd 48 ff ff ff    	mov    -0xb8(%ebp),%edi
  10514e:	29 f7                	sub    %esi,%edi
  105150:	57                   	push   %edi
  105151:	56                   	push   %esi
  105152:	e8 75 f7 ff ff       	call   1048cc <_strout>
  105157:	89 c2                	mov    %eax,%edx
  105159:	01 95 30 ff ff ff    	add    %edx,-0xd0(%ebp)
  10515f:	8d 45 80             	lea    -0x80(%ebp),%eax
  105162:	89 85 48 ff ff ff    	mov    %eax,-0xb8(%ebp)
  105168:	83 c4 14             	add    $0x14,%esp
  10516b:	e9 7d 00 00 00       	jmp    1051ed <_doprnt+0x71d>
  105170:	83 45 0c 04          	addl   $0x4,0xc(%ebp)
  105174:	8b 7d 0c             	mov    0xc(%ebp),%edi
  105177:	8b 77 fc             	mov    -0x4(%edi),%esi
  10517a:	85 f6                	test   %esi,%esi
  10517c:	75 05                	jne    105183 <_doprnt+0x6b3>
  10517e:	be 21 58 10 00       	mov    $0x105821,%esi
  105183:	8b 95 14 ff ff ff    	mov    -0xec(%ebp),%edx
  105189:	85 d2                	test   %edx,%edx
  10518b:	75 05                	jne    105192 <_doprnt+0x6c2>
  10518d:	ba ff 7f 00 00       	mov    $0x7fff,%edx
  105192:	89 b5 48 ff ff ff    	mov    %esi,-0xb8(%ebp)
  105198:	80 3e 00             	cmpb   $0x0,(%esi)
  10519b:	74 80                	je     10511d <_doprnt+0x64d>
  10519d:	8d 76 00             	lea    0x0(%esi),%esi
  1051a0:	4a                   	dec    %edx
  1051a1:	0f 88 76 ff ff ff    	js     10511d <_doprnt+0x64d>
  1051a7:	ff 85 48 ff ff ff    	incl   -0xb8(%ebp)
  1051ad:	8b 85 48 ff ff ff    	mov    -0xb8(%ebp),%eax
  1051b3:	80 38 00             	cmpb   $0x0,(%eax)
  1051b6:	0f 84 61 ff ff ff    	je     10511d <_doprnt+0x64d>
  1051bc:	eb e2                	jmp    1051a0 <_doprnt+0x6d0>
  1051be:	8d 36                	lea    (%esi),%esi
  1051c0:	8b bd 48 ff ff ff    	mov    -0xb8(%ebp),%edi
  1051c6:	c6 07 25             	movb   $0x25,(%edi)
  1051c9:	47                   	inc    %edi
  1051ca:	89 bd 48 ff ff ff    	mov    %edi,-0xb8(%ebp)
  1051d0:	eb 1b                	jmp    1051ed <_doprnt+0x71d>
  1051d2:	8d 36                	lea    (%esi),%esi
  1051d4:	8b 85 48 ff ff ff    	mov    -0xb8(%ebp),%eax
  1051da:	c6 00 25             	movb   $0x25,(%eax)
  1051dd:	40                   	inc    %eax
  1051de:	88 95 1c ff ff ff    	mov    %dl,-0xe4(%ebp)
  1051e4:	88 10                	mov    %dl,(%eax)
  1051e6:	40                   	inc    %eax
  1051e7:	89 85 48 ff ff ff    	mov    %eax,-0xb8(%ebp)
  1051ed:	8b 7d 08             	mov    0x8(%ebp),%edi
  1051f0:	8a 17                	mov    (%edi),%dl
  1051f2:	47                   	inc    %edi
  1051f3:	89 7d 08             	mov    %edi,0x8(%ebp)
  1051f6:	84 d2                	test   %dl,%dl
  1051f8:	0f 85 12 f9 ff ff    	jne    104b10 <_doprnt+0x40>
  1051fe:	8d 55 80             	lea    -0x80(%ebp),%edx
  105201:	39 95 48 ff ff ff    	cmp    %edx,-0xb8(%ebp)
  105207:	74 1c                	je     105225 <_doprnt+0x755>
  105209:	6a 20                	push   $0x20
  10520b:	ff 75 10             	pushl  0x10(%ebp)
  10520e:	6a 00                	push   $0x0
  105210:	8b 85 48 ff ff ff    	mov    -0xb8(%ebp),%eax
  105216:	29 d0                	sub    %edx,%eax
  105218:	50                   	push   %eax
  105219:	52                   	push   %edx
  10521a:	e8 ad f6 ff ff       	call   1048cc <_strout>
  10521f:	01 85 30 ff ff ff    	add    %eax,-0xd0(%ebp)
  105225:	8b 45 10             	mov    0x10(%ebp),%eax
  105228:	f6 40 0d 40          	testb  $0x40,0xd(%eax)
  10522c:	74 0c                	je     10523a <_doprnt+0x76a>
  10522e:	ff 48 04             	decl   0x4(%eax)
  105231:	78 07                	js     10523a <_doprnt+0x76a>
  105233:	8b 38                	mov    (%eax),%edi
  105235:	c6 07 00             	movb   $0x0,(%edi)
  105238:	ff 00                	incl   (%eax)
  10523a:	8b 85 30 ff ff ff    	mov    -0xd0(%ebp),%eax
  105240:	8d a5 08 ff ff ff    	lea    -0xf8(%ebp),%esp
  105246:	5b                   	pop    %ebx
  105247:	5e                   	pop    %esi
  105248:	5f                   	pop    %edi
  105249:	c9                   	leave  
  10524a:	c3                   	ret    
  10524b:	90                   	nop

0010524c <sprintf>:
  10524c:	55                   	push   %ebp
  10524d:	89 e5                	mov    %esp,%ebp
  10524f:	83 ec 10             	sub    $0x10,%esp
  105252:	8b 45 08             	mov    0x8(%ebp),%eax
  105255:	c6 45 fd 42          	movb   $0x42,-0x3(%ebp)
  105259:	89 45 f8             	mov    %eax,-0x8(%ebp)
  10525c:	89 45 f0             	mov    %eax,-0x10(%ebp)
  10525f:	c7 45 f4 ff 7f 00 00 	movl   $0x7fff,-0xc(%ebp)
  105266:	8d 55 10             	lea    0x10(%ebp),%edx
  105269:	8d 45 f0             	lea    -0x10(%ebp),%eax
  10526c:	50                   	push   %eax
  10526d:	52                   	push   %edx
  10526e:	ff 75 0c             	pushl  0xc(%ebp)
  105271:	e8 5a f8 ff ff       	call   104ad0 <_doprnt>
  105276:	c9                   	leave  
  105277:	c3                   	ret    

00105278 <strchr>:
  105278:	55                   	push   %ebp
  105279:	89 e5                	mov    %esp,%ebp
  10527b:	8b 55 08             	mov    0x8(%ebp),%edx
  10527e:	8b 4d 0c             	mov    0xc(%ebp),%ecx
  105281:	85 d2                	test   %edx,%edx
  105283:	75 07                	jne    10528c <strchr+0x14>
  105285:	31 c0                	xor    %eax,%eax
  105287:	c9                   	leave  
  105288:	c3                   	ret    
  105289:	8d 76 00             	lea    0x0(%esi),%esi
  10528c:	0f be 02             	movsbl (%edx),%eax
  10528f:	39 c8                	cmp    %ecx,%eax
  105291:	74 0d                	je     1052a0 <strchr+0x28>
  105293:	8a 02                	mov    (%edx),%al
  105295:	42                   	inc    %edx
  105296:	84 c0                	test   %al,%al
  105298:	75 f2                	jne    10528c <strchr+0x14>
  10529a:	31 c0                	xor    %eax,%eax
  10529c:	c9                   	leave  
  10529d:	c3                   	ret    
  10529e:	8d 36                	lea    (%esi),%esi
  1052a0:	89 d0                	mov    %edx,%eax
  1052a2:	c9                   	leave  
  1052a3:	c3                   	ret    

001052a4 <init_gdb_serial>:
  1052a4:	55                   	push   %ebp
  1052a5:	89 e5                	mov    %esp,%ebp
  1052a7:	68 80 00 00 00       	push   $0x80
  1052ac:	68 fb 03 00 00       	push   $0x3fb
  1052b1:	e8 9a f3 ff ff       	call   104650 <outportb>
  1052b6:	6a 03                	push   $0x3
  1052b8:	68 f8 03 00 00       	push   $0x3f8
  1052bd:	e8 8e f3 ff ff       	call   104650 <outportb>
  1052c2:	6a 00                	push   $0x0
  1052c4:	68 f9 03 00 00       	push   $0x3f9
  1052c9:	e8 82 f3 ff ff       	call   104650 <outportb>
  1052ce:	6a 03                	push   $0x3
  1052d0:	68 fb 03 00 00       	push   $0x3fb
  1052d5:	e8 76 f3 ff ff       	call   104650 <outportb>
  1052da:	83 c4 20             	add    $0x20,%esp
  1052dd:	6a 03                	push   $0x3
  1052df:	68 fc 03 00 00       	push   $0x3fc
  1052e4:	e8 67 f3 ff ff       	call   104650 <outportb>
  1052e9:	c9                   	leave  
  1052ea:	c3                   	ret    
  1052eb:	90                   	nop

001052ec <getDebugChar>:
  1052ec:	55                   	push   %ebp
  1052ed:	89 e5                	mov    %esp,%ebp
  1052ef:	90                   	nop
  1052f0:	68 fd 03 00 00       	push   $0x3fd
  1052f5:	e8 4e f3 ff ff       	call   104648 <inportb>
  1052fa:	83 c4 04             	add    $0x4,%esp
  1052fd:	a8 01                	test   $0x1,%al
  1052ff:	75 07                	jne    105308 <getDebugChar+0x1c>
  105301:	e4 80                	in     $0x80,%al
  105303:	eb eb                	jmp    1052f0 <getDebugChar+0x4>
  105305:	8d 76 00             	lea    0x0(%esi),%esi
  105308:	68 f8 03 00 00       	push   $0x3f8
  10530d:	e8 36 f3 ff ff       	call   104648 <inportb>
  105312:	c9                   	leave  
  105313:	c3                   	ret    

00105314 <putDebugChar>:
  105314:	55                   	push   %ebp
  105315:	89 e5                	mov    %esp,%ebp
  105317:	90                   	nop
  105318:	68 fd 03 00 00       	push   $0x3fd
  10531d:	e8 26 f3 ff ff       	call   104648 <inportb>
  105322:	83 c4 04             	add    $0x4,%esp
  105325:	a8 20                	test   $0x20,%al
  105327:	75 07                	jne    105330 <putDebugChar+0x1c>
  105329:	e4 80                	in     $0x80,%al
  10532b:	eb eb                	jmp    105318 <putDebugChar+0x4>
  10532d:	8d 76 00             	lea    0x0(%esi),%esi
  105330:	0f be 45 08          	movsbl 0x8(%ebp),%eax
  105334:	50                   	push   %eax
  105335:	68 f8 03 00 00       	push   $0x3f8
  10533a:	e8 11 f3 ff ff       	call   104650 <outportb>
  10533f:	c9                   	leave  
  105340:	c3                   	ret    
  105341:	8d 76 00             	lea    0x0(%esi),%esi

00105344 <exceptionHandler>:
  105344:	55                   	push   %ebp
  105345:	89 e5                	mov    %esp,%ebp
  105347:	83 ec 0c             	sub    $0xc,%esp
  10534a:	57                   	push   %edi
  10534b:	56                   	push   %esi
  10534c:	53                   	push   %ebx
  10534d:	8b 7d 08             	mov    0x8(%ebp),%edi
  105350:	8b 75 0c             	mov    0xc(%ebp),%esi
  105353:	e8 f0 f0 ff ff       	call   104448 <get_idt_base>
  105358:	89 c3                	mov    %eax,%ebx
  10535a:	85 db                	test   %ebx,%ebx
  10535c:	75 39                	jne    105397 <exceptionHandler+0x53>
  10535e:	68 00 08 00 00       	push   $0x800
  105363:	e8 3c 01 00 00       	call   1054a4 <_lomem_heap_alloc>
  105368:	89 c3                	mov    %eax,%ebx
  10536a:	68 00 08 00 00       	push   $0x800
  10536f:	53                   	push   %ebx
  105370:	e8 53 00 00 00       	call   1053c8 <bzero>
  105375:	66 c7 45 f8 ff 07    	movw   $0x7ff,-0x8(%ebp)
  10537b:	66 89 5d fa          	mov    %bx,-0x6(%ebp)
  10537f:	89 d8                	mov    %ebx,%eax
  105381:	c1 f8 10             	sar    $0x10,%eax
  105384:	89 45 f4             	mov    %eax,-0xc(%ebp)
  105387:	66 8b 45 f4          	mov    -0xc(%ebp),%ax
  10538b:	66 89 45 fc          	mov    %ax,-0x4(%ebp)
  10538f:	8d 55 f8             	lea    -0x8(%ebp),%edx
  105392:	89 d0                	mov    %edx,%eax
  105394:	0f 01 18             	lidtl  (%eax)
  105397:	8d 04 fb             	lea    (%ebx,%edi,8),%eax
  10539a:	66 8c ca             	mov    %cs,%dx
  10539d:	66 89 30             	mov    %si,(%eax)
  1053a0:	66 89 50 02          	mov    %dx,0x2(%eax)
  1053a4:	c6 40 04 00          	movb   $0x0,0x4(%eax)
  1053a8:	c6 40 05 8e          	movb   $0x8e,0x5(%eax)
  1053ac:	89 f2                	mov    %esi,%edx
  1053ae:	c1 ea 10             	shr    $0x10,%edx
  1053b1:	66 89 50 06          	mov    %dx,0x6(%eax)
  1053b5:	8d 65 e8             	lea    -0x18(%ebp),%esp
  1053b8:	5b                   	pop    %ebx
  1053b9:	5e                   	pop    %esi
  1053ba:	5f                   	pop    %edi
  1053bb:	c9                   	leave  
  1053bc:	c3                   	ret    
  1053bd:	8d 76 00             	lea    0x0(%esi),%esi

001053c0 <flush_i_cache>:
  1053c0:	55                   	push   %ebp
  1053c1:	89 e5                	mov    %esp,%ebp
  1053c3:	eb 00                	jmp    1053c5 <flush_i_cache+0x5>
  1053c5:	c9                   	leave  
  1053c6:	c3                   	ret    
  1053c7:	90                   	nop

001053c8 <bzero>:
  1053c8:	57                   	push   %edi
  1053c9:	8b 7c 24 08          	mov    0x8(%esp),%edi
  1053cd:	8b 4c 24 0c          	mov    0xc(%esp),%ecx
  1053d1:	31 c0                	xor    %eax,%eax
  1053d3:	c1 e9 02             	shr    $0x2,%ecx
  1053d6:	fc                   	cld    
  1053d7:	f3 ab                	rep stos %eax,%es:(%edi)
  1053d9:	8b 4c 24 0c          	mov    0xc(%esp),%ecx
  1053dd:	83 e1 03             	and    $0x3,%ecx
  1053e0:	f3 aa                	rep stos %al,%es:(%edi)
  1053e2:	5f                   	pop    %edi
  1053e3:	c3                   	ret    

001053e4 <_cleanup>:
  1053e4:	55                   	push   %ebp
  1053e5:	89 e5                	mov    %esp,%ebp
  1053e7:	fa                   	cli    
  1053e8:	fa                   	cli    
  1053e9:	6a 11                	push   $0x11
  1053eb:	6a 20                	push   $0x20
  1053ed:	e8 5e f2 ff ff       	call   104650 <outportb>
  1053f2:	6a 11                	push   $0x11
  1053f4:	68 a0 00 00 00       	push   $0xa0
  1053f9:	e8 52 f2 ff ff       	call   104650 <outportb>
  1053fe:	6a 08                	push   $0x8
  105400:	6a 21                	push   $0x21
  105402:	e8 49 f2 ff ff       	call   104650 <outportb>
  105407:	6a 70                	push   $0x70
  105409:	68 a1 00 00 00       	push   $0xa1
  10540e:	e8 3d f2 ff ff       	call   104650 <outportb>
  105413:	83 c4 20             	add    $0x20,%esp
  105416:	6a 04                	push   $0x4
  105418:	6a 21                	push   $0x21
  10541a:	e8 31 f2 ff ff       	call   104650 <outportb>
  10541f:	6a 02                	push   $0x2
  105421:	68 a1 00 00 00       	push   $0xa1
  105426:	e8 25 f2 ff ff       	call   104650 <outportb>
  10542b:	6a 01                	push   $0x1
  10542d:	6a 21                	push   $0x21
  10542f:	e8 1c f2 ff ff       	call   104650 <outportb>
  105434:	6a 01                	push   $0x1
  105436:	68 a1 00 00 00       	push   $0xa1
  10543b:	e8 10 f2 ff ff       	call   104650 <outportb>
  105440:	83 c4 20             	add    $0x20,%esp
  105443:	6a 34                	push   $0x34
  105445:	6a 43                	push   $0x43
  105447:	e8 04 f2 ff ff       	call   104650 <outportb>
  10544c:	6a 00                	push   $0x0
  10544e:	6a 40                	push   $0x40
  105450:	e8 fb f1 ff ff       	call   104650 <outportb>
  105455:	6a 00                	push   $0x0
  105457:	6a 40                	push   $0x40
  105459:	e8 f2 f1 ff ff       	call   104650 <outportb>
  10545e:	6a 00                	push   $0x0
  105460:	6a 21                	push   $0x21
  105462:	e8 e9 f1 ff ff       	call   104650 <outportb>
  105467:	83 c4 20             	add    $0x20,%esp
  10546a:	6a 00                	push   $0x0
  10546c:	68 a1 00 00 00       	push   $0xa1
  105471:	e8 da f1 ff ff       	call   104650 <outportb>
  105476:	83 c4 08             	add    $0x8,%esp
  105479:	6a 0c                	push   $0xc
  10547b:	68 f2 03 00 00       	push   $0x3f2
  105480:	e8 cb f1 ff ff       	call   104650 <outportb>
  105485:	c9                   	leave  
  105486:	c3                   	ret    
  105487:	90                   	nop

00105488 <__eprintf>:
  105488:	55                   	push   %ebp
  105489:	89 e5                	mov    %esp,%ebp
  10548b:	ff 75 14             	pushl  0x14(%ebp)
  10548e:	ff 75 10             	pushl  0x10(%ebp)
  105491:	ff 75 0c             	pushl  0xc(%ebp)
  105494:	ff 75 08             	pushl  0x8(%ebp)
  105497:	e8 7c f3 ff ff       	call   104818 <printf>
  10549c:	e8 47 00 00 00       	call   1054e8 <abort>
  1054a1:	8d 76 00             	lea    0x0(%esi),%esi

001054a4 <_lomem_heap_alloc>:
  1054a4:	55                   	push   %ebp
  1054a5:	89 e5                	mov    %esp,%ebp
  1054a7:	53                   	push   %ebx
  1054a8:	8b 45 08             	mov    0x8(%ebp),%eax
  1054ab:	05 ff 00 00 00       	add    $0xff,%eax
  1054b0:	b0 00                	mov    $0x0,%al
  1054b2:	8b 1d 74 5a 10 00    	mov    0x105a74,%ebx
  1054b8:	01 05 74 5a 10 00    	add    %eax,0x105a74
  1054be:	81 3d 74 5a 10 00 ff 	cmpl   $0x9ffff,0x105a74
  1054c5:	ff 09 00 
  1054c8:	76 16                	jbe    1054e0 <_lomem_heap_alloc+0x3c>
  1054ca:	68 28 58 10 00       	push   $0x105828
  1054cf:	6a 22                	push   $0x22
  1054d1:	68 30 58 10 00       	push   $0x105830
  1054d6:	68 4c 58 10 00       	push   $0x10584c
  1054db:	e8 a8 ff ff ff       	call   105488 <__eprintf>
  1054e0:	89 d8                	mov    %ebx,%eax
  1054e2:	8b 5d fc             	mov    -0x4(%ebp),%ebx
  1054e5:	c9                   	leave  
  1054e6:	c3                   	ret    
  1054e7:	90                   	nop

001054e8 <abort>:
  1054e8:	55                   	push   %ebp
  1054e9:	89 e5                	mov    %esp,%ebp
  1054eb:	83 3d a4 5a 10 00 00 	cmpl   $0x0,0x105aa4
  1054f2:	7e 02                	jle    1054f6 <abort+0xe>
  1054f4:	cc                   	int3   
  1054f5:	90                   	nop
  1054f6:	6a ff                	push   $0xffffffff
  1054f8:	e8 9f ed ff ff       	call   10429c <_exit>
  1054fd:	c9                   	leave  
  1054fe:	c3                   	ret    
  1054ff:	90                   	nop
